 PrintDxe

 Timestamp is 65376f5f (Tue Oct 24 15:16:47 2023)

 Preferred load address is 00010000

 Start         Length     Name                   Class
 0001:00000000 000038b1H .text$mn                CODE
 0002:00000000 000013b4H .rdata                  DATA
 0002:000013b4 00000138H .rdata$zzzdbg           DATA
 0003:00000000 00000074H .data                   DATA
 0003:00000074 00000018H .bss                    DATA
 0004:00000000 00000050H .edata                  DATA

  Address         Publics by Value              Rva+Base       Lib:Object

 0000:00000000       ___guard_fids_count        00000000     <absolute>
 0000:00000000       ___guard_longjmp_table     00000000     <absolute>
 0000:00000000       ___guard_iat_table         00000000     <absolute>
 0000:00000000       ___guard_iat_count         00000000     <absolute>
 0000:00000000       ___guard_longjmp_count     00000000     <absolute>
 0000:00000000       ___guard_flags             00000000     <absolute>
 0000:00000000       ___guard_fids_table        00000000     <absolute>
 0000:00000000       ___dynamic_value_reloc_table 00000000     <absolute>
 0001:00000000       __DriverUnloadHandler      00011000 f   UefiDriverEntryPoint:DriverEntryPoint.obj
 0001:00000040       __ModuleEntryPoint         00011040 f   UefiDriverEntryPoint:DriverEntryPoint.obj
 0001:00000150       _ProcessLibraryConstructorList 00011150 f   PrintDxe:AutoGen.obj
 0001:000001e0       _ProcessLibraryDestructorList 000111e0 f   PrintDxe:AutoGen.obj
 0001:000001f0       _ProcessModuleEntryPointList 000111f0 f   PrintDxe:AutoGen.obj
 0001:00000210       _ProcessModuleUnloadList   00011210 f   PrintDxe:AutoGen.obj
 0001:00000220       _PrintDxeUnicodeValueToString 00011220 f   PrintDxe:Print.obj
 0001:000002d0       _PrintDxeAsciiValueToString 000112d0 f   PrintDxe:Print.obj
 0001:00000380       _PrintEntryPoint           00011380 f   PrintDxe:Print.obj
 0001:00000430       _DebugPrint                00011430 f   PeiDxeDebugLibReportStatusCode:DebugLib.obj
 0001:00000460       _DebugPrintMarker          00011460 f   PeiDxeDebugLibReportStatusCode:DebugLib.obj
 0001:00000940       _DebugVPrint               00011940 f   PeiDxeDebugLibReportStatusCode:DebugLib.obj
 0001:00000960       _DebugAssert               00011960 f   PeiDxeDebugLibReportStatusCode:DebugLib.obj
 0001:00000bc0       _DebugAssertEnabled        00011bc0 f   PeiDxeDebugLibReportStatusCode:DebugLib.obj
 0001:00000bf0       _DebugPrintEnabled         00011bf0 f   PeiDxeDebugLibReportStatusCode:DebugLib.obj
 0001:00000c20       _DebugPrintLevelEnabled    00011c20 f   PeiDxeDebugLibReportStatusCode:DebugLib.obj
 0001:00000c40       _UnicodeVSPrint            00011c40 f   BasePrintLib:PrintLib.obj
 0001:00000cc0       _UnicodeBSPrint            00011cc0 f   BasePrintLib:PrintLib.obj
 0001:00000d50       _UnicodeSPrint             00011d50 f   BasePrintLib:PrintLib.obj
 0001:00000d90       _UnicodeVSPrintAsciiFormat 00011d90 f   BasePrintLib:PrintLib.obj
 0001:00000df0       _UnicodeBSPrintAsciiFormat 00011df0 f   BasePrintLib:PrintLib.obj
 0001:00000e50       _UnicodeSPrintAsciiFormat  00011e50 f   BasePrintLib:PrintLib.obj
 0001:00000e90       _UnicodeValueToStringS     00011e90 f   BasePrintLib:PrintLib.obj
 0001:00000ef0       _AsciiVSPrint              00011ef0 f   BasePrintLib:PrintLib.obj
 0001:00000f20       _AsciiBSPrint              00011f20 f   BasePrintLib:PrintLib.obj
 0001:00000f50       _AsciiSPrint               00011f50 f   BasePrintLib:PrintLib.obj
 0001:00000f90       _AsciiVSPrintUnicodeFormat 00011f90 f   BasePrintLib:PrintLib.obj
 0001:00000ff0       _AsciiBSPrintUnicodeFormat 00011ff0 f   BasePrintLib:PrintLib.obj
 0001:00001050       _AsciiSPrintUnicodeFormat  00012050 f   BasePrintLib:PrintLib.obj
 0001:00001090       _AsciiValueToStringS       00012090 f   BasePrintLib:PrintLib.obj
 0001:000010c0       _BasePrintLibFillBuffer    000120c0 f   BasePrintLib:PrintLibInternal.obj
 0001:00001120       _BasePrintLibValueToString 00012120 f   BasePrintLib:PrintLibInternal.obj
 0001:00001170       _BasePrintLibConvertValueToStringS 00012170 f   BasePrintLib:PrintLibInternal.obj
 0001:00001630       _BasePrintLibSPrintMarker  00012630 f   BasePrintLib:PrintLibInternal.obj
 0001:000028c0       _BasePrintLibSPrint        000138c0 f   BasePrintLib:PrintLibInternal.obj
 0001:00002900       _UefiBootServicesTableLibConstructor 00013900 f   UefiBootServicesTableLib:UefiBootServicesTableLib.obj
 0001:000029b0       _GetDebugPrintErrorLevel   000139b0 f   BaseDebugPrintErrorLevelLib:BaseDebugPrintErrorLevelLib.obj
 0001:000029c0       _AsciiStrLen               000139c0 f   BaseLib:String.obj
 0001:00002a60       _AsciiStrSize              00013a60 f   BaseLib:String.obj
 0001:00002a80       _InternalSafeStringIsOverlap 00013a80 f   BaseLib:SafeString.obj
 0001:00002ac0       _InternalSafeStringNoAsciiStrOverlap 00013ac0 f   BaseLib:SafeString.obj
 0001:00002b00       _StrnLenS                  00013b00 f   BaseLib:SafeString.obj
 0001:00002b80       _AsciiStrnLenS             00013b80 f   BaseLib:SafeString.obj
 0001:00002bd0       _AsciiStrnCpyS             00013bd0 f   BaseLib:SafeString.obj
 0001:00002f60       _CpuBreakpoint             00013f60 f   BaseLib:CpuBreakpoint.obj
 0001:00002f70       _CpuDeadLoop               00013f70 f   BaseLib:CpuDeadLoop.obj
 0001:00002f90       _ReadUnaligned16           00013f90 f   BaseLib:Unaligned.obj
 0001:00002fd0       _ReadUnaligned32           00013fd0 f   BaseLib:Unaligned.obj
 0001:00003010       _ReadUnaligned64           00014010 f   BaseLib:Unaligned.obj
 0001:00003050       _WriteUnaligned64          00014050 f   BaseLib:Unaligned.obj
 0001:000030a0       _DivU64x32Remainder        000140a0 f   BaseLib:DivU64x32Remainder.obj
 0001:000030f0       _CpuPause                  000140f0 f   BaseLib:CpuPause.obj
 0001:00003100       _InternalMathDivRemU64x32  00014100 f   BaseLib:DivU64x32Remainder.obj
 0001:00003120       _CopyMem                   00014120 f   BaseMemoryLib:CopyMemWrapper.obj
 0001:000031c0       _CopyGuid                  000141c0 f   BaseMemoryLib:MemLibGuid.obj
 0001:00003210       _InternalMemCopyMem        00014210 f   BaseMemoryLib:CopyMem.obj
 0001:00003580       _InternalGetReportStatusCode 00014580 f   DxeReportStatusCodeLib:ReportStatusCodeLib.obj
 0001:000035e0       _InternalReportStatusCode  000145e0 f   DxeReportStatusCodeLib:ReportStatusCodeLib.obj
 0001:00003670       _ReportStatusCodeEx        00014670 f   DxeReportStatusCodeLib:ReportStatusCodeLib.obj
 0001:00003830       _ReportProgressCodeEnabled 00014830 f   DxeReportStatusCodeLib:ReportStatusCodeLib.obj
 0001:00003860       _ReportErrorCodeEnabled    00014860 f   DxeReportStatusCodeLib:ReportStatusCodeLib.obj
 0001:00003890       _ReportDebugCodeEnabled    00014890 f   DxeReportStatusCodeLib:ReportStatusCodeLib.obj
 0002:00000000       ??_C@_0CB@DMEJJJHA@?6ASSERT_EFI_ERROR?5?$CIStatus?5?$DN?5?$CFr?$CJ?6@ 00015000     UefiDriverEntryPoint:DriverEntryPoint.obj
 0002:00000024       ??_C@_0CH@BBNBJKHK@?$CB?$CI?$CI?$CIINTN?$CJ?$CIRETURN_STATUS?$CJ?$CIStatus?$CJ@ 00015024     UefiDriverEntryPoint:DriverEntryPoint.obj
 0002:00000050       ??_C@_0GP@GHNHPFLI@c?3?2users?2mliang2x?2workspace?2ming@ 00015050     UefiDriverEntryPoint:DriverEntryPoint.obj
 0002:000000bf       __gDriverUnloadImageCount  000150bf     PrintDxe:AutoGen.obj
 0002:000000c0       __gUefiDriverRevision      000150c0     PrintDxe:AutoGen.obj
 0002:000000c4       ??_C@_08PDENHELJ@PrintDxe?$AA@ 000150c4     PrintDxe:AutoGen.obj
 0002:000000d0       ??_C@_0JJ@DGANIAMC@c?3?2users?2mliang2x?2workspace?2ming@ 000150d0     PrintDxe:AutoGen.obj
 0002:00000169       __gPcd_FixedAtBuild_PcdReportStatusCodePropertyMask 00015169     PrintDxe:AutoGen.obj
 0002:0000016c       __gPcd_FixedAtBuild_PcdDebugPrintErrorLevel 0001516c     PrintDxe:AutoGen.obj
 0002:00000170       __gPcd_FixedAtBuild_PcdFixedDebugPrintErrorLevel 00015170     PrintDxe:AutoGen.obj
 0002:00000174       __gPcd_FixedAtBuild_PcdMaximumAsciiStringLength 00015174     PrintDxe:AutoGen.obj
 0002:00000174       __gPcd_FixedAtBuild_PcdMaximumUnicodeStringLength 00015174     PrintDxe:AutoGen.obj
 0002:00000178       __gPcd_FixedAtBuild_PcdDebugPropertyMask 00015178     PrintDxe:AutoGen.obj
 0002:00000180       ??_C@_0GP@DKLNFIHM@PrintDxe?3?5The?5UnicodeValueToStri@ 00015180     PrintDxe:Print.obj
 0002:000001f0       ??_C@_0FM@HDJDFKAB@PrintDxe?3?5Please?5consider?5using?5@ 000151f0     PrintDxe:Print.obj
 0002:0000024c       ??_C@_0BC@FEDIJHFF@?$CI?$CIBOOLEAN?$CJ?$CI0?$DN?$DN1?$CJ?$CJ?$AA@ 0001524c     PrintDxe:Print.obj
 0002:00000260       ??_C@_0GA@IHANOKJC@c?3?2users?2mliang2x?2workspace?2ming@ 00015260     PrintDxe:Print.obj
 0002:000002c0       ??_C@_0GN@PLFDFEHJ@PrintDxe?3?5The?5AsciiValueToString@ 000152c0     PrintDxe:Print.obj
 0002:00000330       ??_C@_0FK@HFPELOPE@PrintDxe?3?5Please?5consider?5using?5@ 00015330     PrintDxe:Print.obj
 0002:0000038c       _mPrint2Protocol           0001538c     PrintDxe:Print.obj
 0002:000003b4       _mPrint2SProtocol          000153b4     PrintDxe:Print.obj
 0002:000003dc       ??_C@_0BH@LKMBFCBF@Format?5?$CB?$DN?5?$CI?$CIvoid?5?$CK?$CJ?50?$CJ?$AA@ 000153dc     PeiDxeDebugLibReportStatusCode:DebugLib.obj
 0002:000003f8       ??_C@_0HH@BLJPNBBN@c?3?2users?2mliang2x?2workspace?2ming@ 000153f8     PeiDxeDebugLibReportStatusCode:DebugLib.obj
 0002:00000470       ??_C@_0CP@EFCGCEBK@?$CICHAR8?5?$CK?$CJBaseListMarkerPointer?5?$DM@ 00015470     PeiDxeDebugLibReportStatusCode:DebugLib.obj
 0002:000004a0       ??_C@_01OHGJGJJP@?$FL?$AA@ 000154a0     PeiDxeDebugLibReportStatusCode:DebugLib.obj
 0002:000004a4       ??_C@_02PBFOLPKM@?$FN?5?$AA@ 000154a4     PeiDxeDebugLibReportStatusCode:DebugLib.obj
 0002:000004a8       ??_C@_0BH@IACGKAP@Buffer?5?$CB?$DN?5?$CI?$CIvoid?5?$CK?$CJ?50?$CJ?$AA@ 000154a8     PeiDxeDebugLibReportStatusCode:DebugLib.obj
 0002:000004c0       ??_C@_0CI@BGLNHBLM@?$CI?$CI?$CIUINTN?$CJ?5?$CIStartOfBuffer?$CJ?$CJ?5?$CG?50x0@ 000154c0     BasePrintLib:PrintLib.obj
 0002:000004e8       ??_C@_0FP@HCMIGMKH@c?3?2users?2mliang2x?2workspace?2ming@ 000154e8     BasePrintLib:PrintLib.obj
 0002:00000548       ??_C@_0CH@KJLBGOBB@?$CI?$CI?$CIUINTN?$CJ?5?$CIFormatString?$CJ?$CJ?5?$CG?50x01@ 00015548     BasePrintLib:PrintLib.obj
 0002:00000570       ??_C@_0CB@LDBAOPMG@?$CI?$CI?$CIUINTN?$CJ?5?$CIBuffer?$CJ?$CJ?5?$CG?50x01?$CJ?5?$DN?$DN?50@ 00015570     BasePrintLib:PrintLib.obj
 0002:00000598       ??_C@_0GH@MLMKDJJP@c?3?2users?2mliang2x?2workspace?2ming@ 00015598     BasePrintLib:PrintLibInternal.obj
 0002:00000600       ??_C@_0BJ@CNKJJNE@?$CIBuffer?5?$CB?$DN?5?$CI?$CIvoid?5?$CK?$CJ?50?$CJ?$CJ?$AA@ 00015600     BasePrintLib:PrintLibInternal.obj
 0002:00000620       ??_C@_0EB@HDGIDCIO@?$CIBufferSize?5?$DM?$DN?5?$CI_gPcd_FixedAtBui@ 00015620     BasePrintLib:PrintLibInternal.obj
 0002:00000668       ??_C@_0FJ@HAEMOBLP@?$CIBufferSize?5?$DM?$DN?5?$CI_gPcd_FixedAtBui@ 00015668     BasePrintLib:PrintLibInternal.obj
 0002:000006c4       ??_C@_0CO@OJNGHNJG@?$CI?$CIFlags?5?$CG?5?$HO?$CI0x01?5?$HM?50x08?5?$HM?50x20?5?$HM@ 000156c4     BasePrintLib:PrintLibInternal.obj
 0002:000006f4       ??_C@_0DB@HIDPIAGP@?$CI?$CI?$CIFlags?5?$CG?50x08?$CJ?5?$DN?$DN?50?$CJ?5?$HM?$HM?5?$CI?$CIFlag@ 000156f4     BasePrintLib:PrintLibInternal.obj
 0002:00000728       ??_C@_0N@PNKFBKME@?$CIWidth?5?$DM?538?$CJ?$AA@ 00015728     BasePrintLib:PrintLibInternal.obj
 0002:00000738       ??_C@_0CI@HPJOGFNE@?$CIBufferSize?5?$DO?$DN?5?$CIWidth?5?$CL?51?$CJ?5?$CK?5Inc@ 00015738     BasePrintLib:PrintLibInternal.obj
 0002:00000760       ??_C@_0BJ@PPAKKDJG@?$CIFormat?5?$CB?$DN?5?$CI?$CIvoid?5?$CK?$CJ?50?$CJ?$CJ?$AA@ 00015760     BasePrintLib:PrintLibInternal.obj
 0002:00000780       ??_C@_0ED@LPDDCECB@?$CIBufferSize?5?$DM?$DN?5?$CI_gPcd_FixedAtBui@ 00015780     BasePrintLib:PrintLibInternal.obj
 0002:000007c8       ??_C@_0IM@BFJJFLGB@?$CIStrnLenS?5?$CI?$CICHAR16?5?$CK?$CJFormat?0?5?$CI_g@ 000157c8     BasePrintLib:PrintLibInternal.obj
 0002:00000858       ??_C@_0ID@PLGJGION@?$CIAsciiStrnLenS?5?$CIFormat?0?5?$CI_gPcd_F@ 00015858     BasePrintLib:PrintLibInternal.obj
 0002:000008dc       ??_C@_0O@MLOLIMFM@?$DMnull?5string?$DO?$AA@ 000158dc     BasePrintLib:PrintLibInternal.obj
 0002:000008ec       ??_C@_0M@BJJDNPHK@?$DMnull?5guid?$DO?$AA@ 000158ec     BasePrintLib:PrintLibInternal.obj
 0002:000008f8       ??_C@_0DB@PMLHLBMO@?$CF08x?9?$CF04x?9?$CF04x?9?$CF02x?$CF02x?9?$CF02x?$CF02x@ 000158f8     BasePrintLib:PrintLibInternal.obj
 0002:0000092c       ??_C@_0M@LHGBCIKM@?$DMnull?5time?$DO?$AA@ 0001592c     BasePrintLib:PrintLibInternal.obj
 0002:00000938       ??_C@_0BK@FCPKCIDD@?$CF02d?1?$CF02d?1?$CF04d?5?5?$CF02d?3?$CF02d?$AA@ 00015938     BasePrintLib:PrintLibInternal.obj
 0002:00000954       ??_C@_04JIMNDDED@?$CF08X?$AA@ 00015954     BasePrintLib:PrintLibInternal.obj
 0002:0000095c       ??_C@_02PCIJFNDE@?$AN?6?$AA@ 0001595c     BasePrintLib:PrintLibInternal.obj
 0002:00000960       ??_C@_01LIIJDEN@?$AN?$AA@  00015960     BasePrintLib:PrintLibInternal.obj
 0002:00000968       _mWarningString            00015968     BasePrintLib:PrintLibInternal.obj
 0002:00000a30       _mErrorString              00015a30     BasePrintLib:PrintLibInternal.obj
 0002:00000d10       _mHexStr                   00015d10     BasePrintLib:PrintLibInternal.obj
 0002:00000d20       ??_C@_0BN@COECPDCC@gImageHandle?5?$CB?$DN?5?$CI?$CIvoid?5?$CK?$CJ?50?$CJ?$AA@ 00015d20     UefiBootServicesTableLib:UefiBootServicesTableLib.obj
 0002:00000d40       ??_C@_0HL@PJCLKHFF@c?3?2users?2mliang2x?2workspace?2ming@ 00015d40     UefiBootServicesTableLib:UefiBootServicesTableLib.obj
 0002:00000dbc       ??_C@_0BE@DGNHAHIL@gST?5?$CB?$DN?5?$CI?$CIvoid?5?$CK?$CJ?50?$CJ?$AA@ 00015dbc     UefiBootServicesTableLib:UefiBootServicesTableLib.obj
 0002:00000dd0       ??_C@_0BE@BDFJLGLN@gBS?5?$CB?$DN?5?$CI?$CIvoid?5?$CK?$CJ?50?$CJ?$AA@ 00015dd0     UefiBootServicesTableLib:UefiBootServicesTableLib.obj
 0002:00000de4       ??_C@_0BH@MAAHKCPC@String?5?$CB?$DN?5?$CI?$CIvoid?5?$CK?$CJ?50?$CJ?$AA@ 00015de4     BaseLib:String.obj
 0002:00000e00       ??_C@_0FI@OLEMEIPM@c?3?2users?2mliang2x?2workspace?2ming@ 00015e00     BaseLib:String.obj
 0002:00000e58       ??_C@_0CC@GFNLNIOC@?$CI?$CIUINTN?$CJString?5?$CG?50x00000001?$CJ?5?$DN?$DN?5@ 00015e58     BaseLib:String.obj
 0002:00000e7c       ??_C@_0DI@MDIKFADO@Length?5?$DM?5_gPcd_FixedAtBuild_PcdM@ 00015e7c     BaseLib:String.obj
 0002:00000eb8       ??_C@_0FM@NNNBGHEF@c?3?2users?2mliang2x?2workspace?2ming@ 00015eb8     BaseLib:SafeString.obj
 0002:00000f14       ??_C@_0BO@ECNIOIHG@?$CIDestination?5?$CB?$DN?5?$CI?$CIvoid?5?$CK?$CJ?50?$CJ?$CJ?$AA@ 00015f14     BaseLib:SafeString.obj
 0002:00000f38       ??_C@_0EA@PDPDJJNN@?$CFa?$CI?$CFd?$CJ?5?$CFa?3?5SAFE_STRING_CONSTRAIN@ 00015f38     BaseLib:SafeString.obj
 0002:00000f78       ??_C@_0BJ@EAEEJIP@?$CISource?5?$CB?$DN?5?$CI?$CIvoid?5?$CK?$CJ?50?$CJ?$CJ?$AA@ 00015f78     BaseLib:SafeString.obj
 0002:00000f94       ??_C@_0P@PMIMLIHM@?$CIDestMax?5?$CB?$DN?50?$CJ?$AA@ 00015f94     BaseLib:SafeString.obj
 0002:00000fa4       ??_C@_0BG@EEGIIOKH@?$CIDestMax?5?$DO?5SourceLen?$CJ?$AA@ 00015fa4     BaseLib:SafeString.obj
 0002:00000fbc       ??_C@_0DO@LJFOOPII@?$CIDestMax?5?$DM?$DN?5?$CI_gPcd_FixedAtBuild_@ 00015fbc     BaseLib:SafeString.obj
 0002:00001000       ??_C@_0FL@CDANCHFO@InternalSafeStringNoAsciiStrOver@ 00016000     BaseLib:SafeString.obj
 0002:0000105c       ??_C@_0O@DIHNCLLG@AsciiStrnCpyS?$AA@ 0001605c     BaseLib:SafeString.obj
 0002:0000106c       ??_C@_0DN@DLAADCJE@?$CILength?5?$DM?$DN?5?$CI_gPcd_FixedAtBuild_P@ 0001606c     BaseLib:SafeString.obj
 0002:000010b0       ??_C@_0FL@JMOEMBON@c?3?2users?2mliang2x?2workspace?2ming@ 000160b0     BaseLib:Unaligned.obj
 0002:0000110c       ??_C@_0N@KGHEHMDL@Divisor?5?$CB?$DN?50?$AA@ 0001610c     BaseLib:DivU64x32Remainder.obj
 0002:00001120       ??_C@_0GE@LHLPIAGN@c?3?2users?2mliang2x?2workspace?2ming@ 00016120     BaseLib:DivU64x32Remainder.obj
 0002:00001184       ??_C@_0DI@PHOMHDKH@?$CILength?5?9?51?$CJ?5?$DM?$DN?5?$CI0xFFFFFFFF?5?9?5?$CIU@ 00016184     BaseMemoryLib:CopyMemWrapper.obj
 0002:000011c0       ??_C@_0GG@HCOKHFCC@c?3?2users?2mliang2x?2workspace?2ming@ 000161c0     BaseMemoryLib:CopyMemWrapper.obj
 0002:00001228       ??_C@_0DD@DCDOHCDJ@?$CILength?5?9?51?$CJ?5?$DM?$DN?5?$CI0xFFFFFFFF?5?9?5?$CIU@ 00016228     BaseMemoryLib:CopyMemWrapper.obj
 0002:00001260       ??_C@_0HK@HMGLMJLF@c?3?2users?2mliang2x?2workspace?2ming@ 00016260     DxeReportStatusCodeLib:ReportStatusCodeLib.obj
 0002:000012dc       ??_C@_0DN@HHIHPHHB@?$CB?$CI?$CIExtendedData?5?$DN?$DN?5?$CI?$CIvoid?5?$CK?$CJ?50?$CJ?$CJ@ 000162dc     DxeReportStatusCodeLib:ReportStatusCodeLib.obj
 0002:0000131c       ??_C@_0DN@BBBIFINB@?$CB?$CI?$CIExtendedData?5?$CB?$DN?5?$CI?$CIvoid?5?$CK?$CJ?50?$CJ?$CJ@ 0001631c     DxeReportStatusCodeLib:ReportStatusCodeLib.obj
 0003:00000000       _gEfiLoadedImageProtocolGuid 00017000     PrintDxe:AutoGen.obj
 0003:00000010       _gEfiStatusCodeSpecificDataGuid 00017010     PrintDxe:AutoGen.obj
 0003:00000020       _gEfiStatusCodeRuntimeProtocolGuid 00017020     PrintDxe:AutoGen.obj
 0003:00000030       _gEfiCallerBaseName        00017030     PrintDxe:AutoGen.obj
 0003:00000034       _gEfiPrint2SProtocolGuid   00017034     PrintDxe:AutoGen.obj
 0003:00000044       _gEfiPrint2ProtocolGuid    00017044     PrintDxe:AutoGen.obj
 0003:00000054       _gEfiStatusCodeDataTypeDebugGuid 00017054     PrintDxe:AutoGen.obj
 0003:00000064       _gEfiCallerIdGuid          00017064     PrintDxe:AutoGen.obj
 0003:00000074       _mPrintThunkHandle         00017074     PrintDxe:Print.obj
 0003:00000078       _gST                       00017078     UefiBootServicesTableLib:UefiBootServicesTableLib.obj
 0003:0000007c       _gBS                       0001707c     UefiBootServicesTableLib:UefiBootServicesTableLib.obj
 0003:00000080       _gImageHandle              00017080     UefiBootServicesTableLib:UefiBootServicesTableLib.obj
 0003:00000084       _mReportStatusCodeLibStatusCodeProtocol 00017084     DxeReportStatusCodeLib:ReportStatusCodeLib.obj
 0003:00000088       _gNullVaList               00017088     <common>

 entry point at        0001:00000040

 Static symbols

 0000:ffff6000       .debug$S                   00010000     PrintDxe.exp
 0001:00002778       $LN237                     00013778     BasePrintLib:PrintLibInternal.obj
 0001:000027a4       $LN233                     000137a4     BasePrintLib:PrintLibInternal.obj
 0001:00002814       $LN238                     00013814     BasePrintLib:PrintLibInternal.obj
 0001:0000284c       $LN234                     0001384c     BasePrintLib:PrintLibInternal.obj
 0004:00000000       .edata                     00018000     PrintDxe.exp
 0004:00000028       rgpv                       00018028     PrintDxe.exp
 0004:0000002c       rgszName                   0001802c     PrintDxe.exp
 0004:00000030       rgwOrd                     00018030     PrintDxe.exp
 0004:00000032       szName                     00018032     PrintDxe.exp
 0004:0000003f       $N00001                    0001803f     PrintDxe.exp
