 DevicePathDxe

 Timestamp is 65376f65 (Tue Oct 24 15:16:53 2023)

 Preferred load address is 00010000

 Start         Length     Name                   Class
 0001:00000000 0000c6ccH .text$mn                CODE
 0002:00000000 000031c4H .rdata                  DATA
 0002:000031c4 00000148H .rdata$zzzdbg           DATA
 0003:00000000 000003f0H .data                   DATA
 0003:000003f0 00000010H .bss                    DATA
 0004:00000000 00000055H .edata                  DATA

  Address         Publics by Value              Rva+Base       Lib:Object

 0000:00000000       ___dynamic_value_reloc_table 00000000     <absolute>
 0000:00000000       ___guard_iat_table         00000000     <absolute>
 0000:00000000       ___guard_iat_count         00000000     <absolute>
 0000:00000000       ___guard_longjmp_table     00000000     <absolute>
 0000:00000000       ___guard_fids_table        00000000     <absolute>
 0000:00000000       ___guard_fids_count        00000000     <absolute>
 0000:00000000       ___guard_longjmp_count     00000000     <absolute>
 0000:00000000       ___guard_flags             00000000     <absolute>
 0001:00000000       __DriverUnloadHandler      00011000 f   UefiDriverEntryPoint:DriverEntryPoint.obj
 0001:00000040       __ModuleEntryPoint         00011040 f   UefiDriverEntryPoint:DriverEntryPoint.obj
 0001:00000150       _ProcessLibraryConstructorList 00011150 f   DevicePathDxe:AutoGen.obj
 0001:000001e0       _ProcessLibraryDestructorList 000111e0 f   DevicePathDxe:AutoGen.obj
 0001:000001f0       _ProcessModuleEntryPointList 000111f0 f   DevicePathDxe:AutoGen.obj
 0001:00000210       _ProcessModuleUnloadList   00011210 f   DevicePathDxe:AutoGen.obj
 0001:00000220       _DevicePathEntryPoint      00011220 f   DevicePathDxe:DevicePath.obj
 0001:00000320       _DebugPrint                00011320 f   PeiDxeDebugLibReportStatusCode:DebugLib.obj
 0001:00000350       _DebugPrintMarker          00011350 f   PeiDxeDebugLibReportStatusCode:DebugLib.obj
 0001:00000830       _DebugVPrint               00011830 f   PeiDxeDebugLibReportStatusCode:DebugLib.obj
 0001:00000850       _DebugAssert               00011850 f   PeiDxeDebugLibReportStatusCode:DebugLib.obj
 0001:00000ab0       _DebugAssertEnabled        00011ab0 f   PeiDxeDebugLibReportStatusCode:DebugLib.obj
 0001:00000ae0       _DebugPrintEnabled         00011ae0 f   PeiDxeDebugLibReportStatusCode:DebugLib.obj
 0001:00000b10       _DebugPrintLevelEnabled    00011b10 f   PeiDxeDebugLibReportStatusCode:DebugLib.obj
 0001:00000b30       _GetDevicePathSize         00011b30 f   UefiDevicePathLib:UefiDevicePathLib.obj
 0001:00000b50       _DuplicateDevicePath       00011b50 f   UefiDevicePathLib:UefiDevicePathLib.obj
 0001:00000b70       _AppendDevicePath          00011b70 f   UefiDevicePathLib:UefiDevicePathLib.obj
 0001:00000b90       _AppendDevicePathNode      00011b90 f   UefiDevicePathLib:UefiDevicePathLib.obj
 0001:00000bb0       _AppendDevicePathInstance  00011bb0 f   UefiDevicePathLib:UefiDevicePathLib.obj
 0001:00000bd0       _GetNextDevicePathInstance 00011bd0 f   UefiDevicePathLib:UefiDevicePathLib.obj
 0001:00000bf0       _CreateDeviceNode          00011bf0 f   UefiDevicePathLib:UefiDevicePathLib.obj
 0001:00000c10       _IsDevicePathMultiInstance 00011c10 f   UefiDevicePathLib:UefiDevicePathLib.obj
 0001:00000c30       _ConvertDeviceNodeToText   00011c30 f   UefiDevicePathLib:UefiDevicePathLib.obj
 0001:00000c50       _ConvertDevicePathToText   00011c50 f   UefiDevicePathLib:UefiDevicePathLib.obj
 0001:00000c70       _ConvertTextToDeviceNode   00011c70 f   UefiDevicePathLib:UefiDevicePathLib.obj
 0001:00000c90       _ConvertTextToDevicePath   00011c90 f   UefiDevicePathLib:UefiDevicePathLib.obj
 0001:00000cb0       _IsDevicePathValid         00011cb0 f   UefiDevicePathLib:DevicePathUtilities.obj
 0001:00000de0       _DevicePathType            00011de0 f   UefiDevicePathLib:DevicePathUtilities.obj
 0001:00000e20       _DevicePathSubType         00011e20 f   UefiDevicePathLib:DevicePathUtilities.obj
 0001:00000e60       _DevicePathNodeLength      00011e60 f   UefiDevicePathLib:DevicePathUtilities.obj
 0001:00000eb0       _NextDevicePathNode        00011eb0 f   UefiDevicePathLib:DevicePathUtilities.obj
 0001:00000f00       _IsDevicePathEndType       00011f00 f   UefiDevicePathLib:DevicePathUtilities.obj
 0001:00000f60       _IsDevicePathEnd           00011f60 f   UefiDevicePathLib:DevicePathUtilities.obj
 0001:00000fd0       _IsDevicePathEndInstance   00011fd0 f   UefiDevicePathLib:DevicePathUtilities.obj
 0001:00001040       _SetDevicePathNodeLength   00012040 f   UefiDevicePathLib:DevicePathUtilities.obj
 0001:000010d0       _SetDevicePathEndNode      000120d0 f   UefiDevicePathLib:DevicePathUtilities.obj
 0001:00001120       _UefiDevicePathLibGetDevicePathSize 00012120 f   UefiDevicePathLib:DevicePathUtilities.obj
 0001:00001190       _UefiDevicePathLibDuplicateDevicePath 00012190 f   UefiDevicePathLib:DevicePathUtilities.obj
 0001:000011d0       _UefiDevicePathLibAppendDevicePath 000121d0 f   UefiDevicePathLib:DevicePathUtilities.obj
 0001:000012d0       _UefiDevicePathLibAppendDevicePathNode 000122d0 f   UefiDevicePathLib:DevicePathUtilities.obj
 0001:00001390       _UefiDevicePathLibAppendDevicePathInstance 00012390 f   UefiDevicePathLib:DevicePathUtilities.obj
 0001:00001490       _UefiDevicePathLibGetNextDevicePathInstance 00012490 f   UefiDevicePathLib:DevicePathUtilities.obj
 0001:000015a0       _UefiDevicePathLibCreateDeviceNode 000125a0 f   UefiDevicePathLib:DevicePathUtilities.obj
 0001:000015f0       _UefiDevicePathLibIsDevicePathMultiInstance 000125f0 f   UefiDevicePathLib:DevicePathUtilities.obj
 0001:00001660       _UefiDevicePathLibStrDuplicate 00012660 f   UefiDevicePathLib:DevicePathFromText.obj
 0001:00001680       _GetParamByNodeName        00012680 f   UefiDevicePathLib:DevicePathFromText.obj
 0001:00001760       _SplitStr                  00012760 f   UefiDevicePathLib:DevicePathFromText.obj
 0001:000017e0       _GetNextParamStr           000127e0 f   UefiDevicePathLib:DevicePathFromText.obj
 0001:00001800       _GetNextDeviceNodeStr      00012800 f   UefiDevicePathLib:DevicePathFromText.obj
 0001:00001930       _IsHexStr                  00012930 f   UefiDevicePathLib:DevicePathFromText.obj
 0001:000019a0       _Strtoi                    000129a0 f   UefiDevicePathLib:DevicePathFromText.obj
 0001:000019e0       _Strtoi64                  000129e0 f   UefiDevicePathLib:DevicePathFromText.obj
 0001:00001a30       _StrToAscii                00012a30 f   UefiDevicePathLib:DevicePathFromText.obj
 0001:00001a80       _DevPathFromTextGenericPath 00012a80 f   UefiDevicePathLib:DevicePathFromText.obj
 0001:00001b10       _DevPathFromTextPath       00012b10 f   UefiDevicePathLib:DevicePathFromText.obj
 0001:00001b40       _DevPathFromTextHardwarePath 00012b40 f   UefiDevicePathLib:DevicePathFromText.obj
 0001:00001b60       _DevPathFromTextPci        00012b60 f   UefiDevicePathLib:DevicePathFromText.obj
 0001:00001bc0       _DevPathFromTextPcCard     00012bc0 f   UefiDevicePathLib:DevicePathFromText.obj
 0001:00001c00       _DevPathFromTextMemoryMapped 00012c00 f   UefiDevicePathLib:DevicePathFromText.obj
 0001:00001c90       _ConvertFromTextVendor     00012c90 f   UefiDevicePathLib:DevicePathFromText.obj
 0001:00001d30       _DevPathFromTextVenHw      00012d30 f   UefiDevicePathLib:DevicePathFromText.obj
 0001:00001d50       _DevPathFromTextCtrl       00012d50 f   UefiDevicePathLib:DevicePathFromText.obj
 0001:00001d90       _DevPathFromTextBmc        00012d90 f   UefiDevicePathLib:DevicePathFromText.obj
 0001:00001e00       _DevPathFromTextAcpiPath   00012e00 f   UefiDevicePathLib:DevicePathFromText.obj
 0001:00001e20       _EisaIdFromText            00012e20 f   UefiDevicePathLib:DevicePathFromText.obj
 0001:00001e90       _DevPathFromTextAcpi       00012e90 f   UefiDevicePathLib:DevicePathFromText.obj
 0001:00001ef0       _ConvertFromTextAcpi       00012ef0 f   UefiDevicePathLib:DevicePathFromText.obj
 0001:00001f50       _DevPathFromTextPciRoot    00012f50 f   UefiDevicePathLib:DevicePathFromText.obj
 0001:00001f70       _DevPathFromTextPcieRoot   00012f70 f   UefiDevicePathLib:DevicePathFromText.obj
 0001:00001f90       _DevPathFromTextFloppy     00012f90 f   UefiDevicePathLib:DevicePathFromText.obj
 0001:00001fb0       _DevPathFromTextKeyboard   00012fb0 f   UefiDevicePathLib:DevicePathFromText.obj
 0001:00001fd0       _DevPathFromTextSerial     00012fd0 f   UefiDevicePathLib:DevicePathFromText.obj
 0001:00001ff0       _DevPathFromTextParallelPort 00012ff0 f   UefiDevicePathLib:DevicePathFromText.obj
 0001:00002010       _DevPathFromTextAcpiEx     00013010 f   UefiDevicePathLib:DevicePathFromText.obj
 0001:00002140       _DevPathFromTextAcpiExp    00013140 f   UefiDevicePathLib:DevicePathFromText.obj
 0001:00002220       _DevPathFromTextAcpiAdr    00013220 f   UefiDevicePathLib:DevicePathFromText.obj
 0001:00002330       _DevPathFromTextMsg        00013330 f   UefiDevicePathLib:DevicePathFromText.obj
 0001:00002350       _DevPathFromTextAta        00013350 f   UefiDevicePathLib:DevicePathFromText.obj
 0001:00002450       _DevPathFromTextScsi       00013450 f   UefiDevicePathLib:DevicePathFromText.obj
 0001:000024c0       _DevPathFromTextFibre      000134c0 f   UefiDevicePathLib:DevicePathFromText.obj
 0001:00002530       _DevPathFromTextFibreEx    00013530 f   UefiDevicePathLib:DevicePathFromText.obj
 0001:000025e0       _DevPathFromText1394       000135e0 f   UefiDevicePathLib:DevicePathFromText.obj
 0001:00002630       _DevPathFromTextUsb        00013630 f   UefiDevicePathLib:DevicePathFromText.obj
 0001:00002690       _DevPathFromTextI2O        00013690 f   UefiDevicePathLib:DevicePathFromText.obj
 0001:000026d0       _DevPathFromTextInfiniband 000136d0 f   UefiDevicePathLib:DevicePathFromText.obj
 0001:000027a0       _DevPathFromTextVenMsg     000137a0 f   UefiDevicePathLib:DevicePathFromText.obj
 0001:000027c0       _DevPathFromTextVenPcAnsi  000137c0 f   UefiDevicePathLib:DevicePathFromText.obj
 0001:000027f0       _DevPathFromTextVenVt100   000137f0 f   UefiDevicePathLib:DevicePathFromText.obj
 0001:00002820       _DevPathFromTextVenVt100Plus 00013820 f   UefiDevicePathLib:DevicePathFromText.obj
 0001:00002850       _DevPathFromTextVenUtf8    00013850 f   UefiDevicePathLib:DevicePathFromText.obj
 0001:00002880       _DevPathFromTextUartFlowCtrl 00013880 f   UefiDevicePathLib:DevicePathFromText.obj
 0001:00002910       _DevPathFromTextSAS        00013910 f   UefiDevicePathLib:DevicePathFromText.obj
 0001:00002b90       _DevPathFromTextSasEx      00013b90 f   UefiDevicePathLib:DevicePathFromText.obj
 0001:00002e20       _DevPathFromTextNVMe       00013e20 f   UefiDevicePathLib:DevicePathFromText.obj
 0001:00002ec0       _DevPathFromTextUfs        00013ec0 f   UefiDevicePathLib:DevicePathFromText.obj
 0001:00002f20       _DevPathFromTextSd         00013f20 f   UefiDevicePathLib:DevicePathFromText.obj
 0001:00002f60       _DevPathFromTextEmmc       00013f60 f   UefiDevicePathLib:DevicePathFromText.obj
 0001:00002fa0       _DevPathFromTextDebugPort  00013fa0 f   UefiDevicePathLib:DevicePathFromText.obj
 0001:00002fd0       _DevPathFromTextMAC        00013fd0 f   UefiDevicePathLib:DevicePathFromText.obj
 0001:00003060       _NetworkProtocolFromText   00014060 f   UefiDevicePathLib:DevicePathFromText.obj
 0001:000030b0       _DevPathFromTextIPv4       000140b0 f   UefiDevicePathLib:DevicePathFromText.obj
 0001:00003210       _DevPathFromTextIPv6       00014210 f   UefiDevicePathLib:DevicePathFromText.obj
 0001:00003380       _DevPathFromTextUart       00014380 f   UefiDevicePathLib:DevicePathFromText.obj
 0001:00003580       _ConvertFromTextUsbClass   00014580 f   UefiDevicePathLib:DevicePathFromText.obj
 0001:000036e0       _DevPathFromTextUsbClass   000146e0 f   UefiDevicePathLib:DevicePathFromText.obj
 0001:00003700       _DevPathFromTextUsbAudio   00014700 f   UefiDevicePathLib:DevicePathFromText.obj
 0001:00003730       _DevPathFromTextUsbCDCControl 00014730 f   UefiDevicePathLib:DevicePathFromText.obj
 0001:00003760       _DevPathFromTextUsbHID     00014760 f   UefiDevicePathLib:DevicePathFromText.obj
 0001:00003790       _DevPathFromTextUsbImage   00014790 f   UefiDevicePathLib:DevicePathFromText.obj
 0001:000037c0       _DevPathFromTextUsbPrinter 000147c0 f   UefiDevicePathLib:DevicePathFromText.obj
 0001:000037f0       _DevPathFromTextUsbMassStorage 000147f0 f   UefiDevicePathLib:DevicePathFromText.obj
 0001:00003820       _DevPathFromTextUsbHub     00014820 f   UefiDevicePathLib:DevicePathFromText.obj
 0001:00003850       _DevPathFromTextUsbCDCData 00014850 f   UefiDevicePathLib:DevicePathFromText.obj
 0001:00003880       _DevPathFromTextUsbSmartCard 00014880 f   UefiDevicePathLib:DevicePathFromText.obj
 0001:000038b0       _DevPathFromTextUsbVideo   000148b0 f   UefiDevicePathLib:DevicePathFromText.obj
 0001:000038e0       _DevPathFromTextUsbDiagnostic 000148e0 f   UefiDevicePathLib:DevicePathFromText.obj
 0001:00003910       _DevPathFromTextUsbWireless 00014910 f   UefiDevicePathLib:DevicePathFromText.obj
 0001:00003940       _DevPathFromTextUsbDeviceFirmwareUpdate 00014940 f   UefiDevicePathLib:DevicePathFromText.obj
 0001:00003970       _DevPathFromTextUsbIrdaBridge 00014970 f   UefiDevicePathLib:DevicePathFromText.obj
 0001:000039a0       _DevPathFromTextUsbTestAndMeasurement 000149a0 f   UefiDevicePathLib:DevicePathFromText.obj
 0001:000039d0       _DevPathFromTextUsbWwid    000149d0 f   UefiDevicePathLib:DevicePathFromText.obj
 0001:00003ae0       _DevPathFromTextUnit       00014ae0 f   UefiDevicePathLib:DevicePathFromText.obj
 0001:00003b20       _DevPathFromTextiSCSI      00014b20 f   UefiDevicePathLib:DevicePathFromText.obj
 0001:00003ce0       _DevPathFromTextVlan       00014ce0 f   UefiDevicePathLib:DevicePathFromText.obj
 0001:00003d20       _DevPathFromTextBluetooth  00014d20 f   UefiDevicePathLib:DevicePathFromText.obj
 0001:00003d70       _DevPathFromTextWiFi       00014d70 f   UefiDevicePathLib:DevicePathFromText.obj
 0001:00003e10       _DevPathFromTextBluetoothLE 00014e10 f   UefiDevicePathLib:DevicePathFromText.obj
 0001:00003e80       _DevPathFromTextDns        00014e80 f   UefiDevicePathLib:DevicePathFromText.obj
 0001:00003ff0       _DevPathFromTextUri        00014ff0 f   UefiDevicePathLib:DevicePathFromText.obj
 0001:00004060       _DevPathFromTextMediaPath  00015060 f   UefiDevicePathLib:DevicePathFromText.obj
 0001:00004080       _DevPathFromTextHD         00015080 f   UefiDevicePathLib:DevicePathFromText.obj
 0001:000041d0       _DevPathFromTextCDROM      000151d0 f   UefiDevicePathLib:DevicePathFromText.obj
 0001:00004260       _DevPathFromTextVenMedia   00015260 f   UefiDevicePathLib:DevicePathFromText.obj
 0001:00004280       _DevPathFromTextFilePath   00015280 f   UefiDevicePathLib:DevicePathFromText.obj
 0001:000042d0       _DevPathFromTextMedia      000152d0 f   UefiDevicePathLib:DevicePathFromText.obj
 0001:00004310       _DevPathFromTextFv         00015310 f   UefiDevicePathLib:DevicePathFromText.obj
 0001:00004350       _DevPathFromTextFvFile     00015350 f   UefiDevicePathLib:DevicePathFromText.obj
 0001:00004390       _DevPathFromTextRelativeOffsetRange 00015390 f   UefiDevicePathLib:DevicePathFromText.obj
 0001:00004400       _DevPathFromTextRamDisk    00015400 f   UefiDevicePathLib:DevicePathFromText.obj
 0001:000044e0       _DevPathFromTextVirtualDisk 000154e0 f   UefiDevicePathLib:DevicePathFromText.obj
 0001:000045c0       _DevPathFromTextVirtualCd  000155c0 f   UefiDevicePathLib:DevicePathFromText.obj
 0001:000046a0       _DevPathFromTextPersistentVirtualDisk 000156a0 f   UefiDevicePathLib:DevicePathFromText.obj
 0001:00004780       _DevPathFromTextPersistentVirtualCd 00015780 f   UefiDevicePathLib:DevicePathFromText.obj
 0001:00004860       _DevPathFromTextBbsPath    00015860 f   UefiDevicePathLib:DevicePathFromText.obj
 0001:00004880       _DevPathFromTextBBS        00015880 f   UefiDevicePathLib:DevicePathFromText.obj
 0001:000049f0       _DevPathFromTextSata       000159f0 f   UefiDevicePathLib:DevicePathFromText.obj
 0001:00004a90       _UefiDevicePathLibConvertTextToDeviceNode 00015a90 f   UefiDevicePathLib:DevicePathFromText.obj
 0001:00004b90       _UefiDevicePathLibConvertTextToDevicePath 00015b90 f   UefiDevicePathLib:DevicePathFromText.obj
 0001:00004d10       _UefiDevicePathLibCatPrint 00015d10 f   UefiDevicePathLib:DevicePathToText.obj
 0001:00004e10       _DevPathToTextPci          00015e10 f   UefiDevicePathLib:DevicePathToText.obj
 0001:00004e40       _DevPathToTextPccard       00015e40 f   UefiDevicePathLib:DevicePathToText.obj
 0001:00004e70       _DevPathToTextMemMap       00015e70 f   UefiDevicePathLib:DevicePathToText.obj
 0001:00004eb0       _DevPathToTextVendor       00015eb0 f   UefiDevicePathLib:DevicePathToText.obj
 0001:000052d0       _DevPathToTextController   000162d0 f   UefiDevicePathLib:DevicePathToText.obj
 0001:00005300       _DevPathToTextBmc          00016300 f   UefiDevicePathLib:DevicePathToText.obj
 0001:00005340       _DevPathToTextAcpi         00016340 f   UefiDevicePathLib:DevicePathToText.obj
 0001:000054b0       _DevPathToTextAcpiEx       000164b0 f   UefiDevicePathLib:DevicePathToText.obj
 0001:000058e0       _DevPathToTextAcpiAdr      000168e0 f   UefiDevicePathLib:DevicePathToText.obj
 0001:00005980       _DevPathToTextAtapi        00016980 f   UefiDevicePathLib:DevicePathToText.obj
 0001:00005a10       _DevPathToTextScsi         00016a10 f   UefiDevicePathLib:DevicePathToText.obj
 0001:00005a40       _DevPathToTextFibre        00016a40 f   UefiDevicePathLib:DevicePathToText.obj
 0001:00005a80       _DevPathToTextFibreEx      00016a80 f   UefiDevicePathLib:DevicePathToText.obj
 0001:00005b30       _DevPathToTextSasEx        00016b30 f   UefiDevicePathLib:DevicePathToText.obj
 0001:00005d30       _DevPathToTextNVMe         00016d30 f   UefiDevicePathLib:DevicePathToText.obj
 0001:00005de0       _DevPathToTextUfs          00016de0 f   UefiDevicePathLib:DevicePathToText.obj
 0001:00005e10       _DevPathToTextSd           00016e10 f   UefiDevicePathLib:DevicePathToText.obj
 0001:00005e40       _DevPathToTextEmmc         00016e40 f   UefiDevicePathLib:DevicePathToText.obj
 0001:00005e70       _DevPathToText1394         00016e70 f   UefiDevicePathLib:DevicePathToText.obj
 0001:00005ea0       _DevPathToTextUsb          00016ea0 f   UefiDevicePathLib:DevicePathToText.obj
 0001:00005ed0       _DevPathToTextUsbWWID      00016ed0 f   UefiDevicePathLib:DevicePathToText.obj
 0001:00005fa0       _DevPathToTextLogicalUnit  00016fa0 f   UefiDevicePathLib:DevicePathToText.obj
 0001:00005fd0       _DevPathToTextUsbClass     00016fd0 f   UefiDevicePathLib:DevicePathToText.obj
 0001:00006360       _DevPathToTextSata         00017360 f   UefiDevicePathLib:DevicePathToText.obj
 0001:000063a0       _DevPathToTextI2O          000173a0 f   UefiDevicePathLib:DevicePathToText.obj
 0001:000063d0       _DevPathToTextMacAddr      000173d0 f   UefiDevicePathLib:DevicePathToText.obj
 0001:00006470       _CatNetworkProtocol        00017470 f   UefiDevicePathLib:DevicePathToText.obj
 0001:000064d0       _CatIPv4Address            000174d0 f   UefiDevicePathLib:DevicePathToText.obj
 0001:00006530       _CatIPv6Address            00017530 f   UefiDevicePathLib:DevicePathToText.obj
 0001:00006650       _DevPathToTextIPv4         00017650 f   UefiDevicePathLib:DevicePathToText.obj
 0001:00006780       _DevPathToTextIPv6         00017780 f   UefiDevicePathLib:DevicePathToText.obj
 0001:000068b0       _DevPathToTextInfiniBand   000178b0 f   UefiDevicePathLib:DevicePathToText.obj
 0001:00006900       _DevPathToTextUart         00017900 f   UefiDevicePathLib:DevicePathToText.obj
 0001:00006a90       _DevPathToTextiSCSI        00017a90 f   UefiDevicePathLib:DevicePathToText.obj
 0001:00006bf0       _DevPathToTextVlan         00017bf0 f   UefiDevicePathLib:DevicePathToText.obj
 0001:00006c20       _DevPathToTextBluetooth    00017c20 f   UefiDevicePathLib:DevicePathToText.obj
 0001:00006cb0       _DevPathToTextWiFi         00017cb0 f   UefiDevicePathLib:DevicePathToText.obj
 0001:00006d00       _DevPathToTextBluetoothLE  00017d00 f   UefiDevicePathLib:DevicePathToText.obj
 0001:00006d90       _DevPathToTextDns          00017d90 f   UefiDevicePathLib:DevicePathToText.obj
 0001:00006e50       _DevPathToTextUri          00017e50 f   UefiDevicePathLib:DevicePathToText.obj
 0001:00006f00       _DevPathToTextHardDrive    00017f00 f   UefiDevicePathLib:DevicePathToText.obj
 0001:00006fd0       _DevPathToTextCDROM        00017fd0 f   UefiDevicePathLib:DevicePathToText.obj
 0001:00007030       _DevPathToTextFilePath     00018030 f   UefiDevicePathLib:DevicePathToText.obj
 0001:00007060       _DevPathToTextMediaProtocol 00018060 f   UefiDevicePathLib:DevicePathToText.obj
 0001:00007090       _DevPathToTextFv           00018090 f   UefiDevicePathLib:DevicePathToText.obj
 0001:000070c0       _DevPathToTextFvFile       000180c0 f   UefiDevicePathLib:DevicePathToText.obj
 0001:000070f0       _DevPathRelativeOffsetRange 000180f0 f   UefiDevicePathLib:DevicePathToText.obj
 0001:00007130       _DevPathToTextRamDisk      00018130 f   UefiDevicePathLib:DevicePathToText.obj
 0001:00007450       _DevPathToTextBBS          00018450 f   UefiDevicePathLib:DevicePathToText.obj
 0001:00007550       _DevPathToTextEndInstance  00018550 f   UefiDevicePathLib:DevicePathToText.obj
 0001:00007570       _DevPathToTextNodeGeneric  00018570 f   UefiDevicePathLib:DevicePathToText.obj
 0001:000076a0       _UefiDevicePathLibConvertDeviceNodeToText 000186a0 f   UefiDevicePathLib:DevicePathToText.obj
 0001:00007780       _UefiDevicePathLibConvertDevicePathToText 00018780 f   UefiDevicePathLib:DevicePathToText.obj
 0001:000078d0       _UefiBootServicesTableLibConstructor 000188d0 f   UefiBootServicesTableLib:UefiBootServicesTableLib.obj
 0001:00007980       _UnicodeVSPrint            00018980 f   BasePrintLib:PrintLib.obj
 0001:00007a00       _UnicodeSPrint             00018a00 f   BasePrintLib:PrintLib.obj
 0001:00007a40       _SPrintLength              00018a40 f   BasePrintLib:PrintLib.obj
 0001:00007a90       _BasePrintLibFillBuffer    00018a90 f   BasePrintLib:PrintLibInternal.obj
 0001:00007af0       _BasePrintLibValueToString 00018af0 f   BasePrintLib:PrintLibInternal.obj
 0001:00007b40       _BasePrintLibSPrintMarker  00018b40 f   BasePrintLib:PrintLibInternal.obj
 0001:00008dd0       _BasePrintLibSPrint        00019dd0 f   BasePrintLib:PrintLibInternal.obj
 0001:00008e10       _InternalAllocatePool      00019e10 f   UefiMemoryAllocationLib:MemoryAllocationLib.obj
 0001:00008e50       _AllocatePool              00019e50 f   UefiMemoryAllocationLib:MemoryAllocationLib.obj
 0001:00008e70       _InternalAllocateZeroPool  00019e70 f   UefiMemoryAllocationLib:MemoryAllocationLib.obj
 0001:00008eb0       _AllocateZeroPool          00019eb0 f   UefiMemoryAllocationLib:MemoryAllocationLib.obj
 0001:00008ed0       _InternalAllocateCopyPool  00019ed0 f   UefiMemoryAllocationLib:MemoryAllocationLib.obj
 0001:00008f70       _AllocateCopyPool          00019f70 f   UefiMemoryAllocationLib:MemoryAllocationLib.obj
 0001:00008f90       _InternalReallocatePool    00019f90 f   UefiMemoryAllocationLib:MemoryAllocationLib.obj
 0001:00009000       _ReallocatePool            0001a000 f   UefiMemoryAllocationLib:MemoryAllocationLib.obj
 0001:00009020       _FreePool                  0001a020 f   UefiMemoryAllocationLib:MemoryAllocationLib.obj
 0001:000090b0       _GetDebugPrintErrorLevel   0001a0b0 f   BaseDebugPrintErrorLevelLib:BaseDebugPrintErrorLevelLib.obj
 0001:000090c0       _InternalGetReportStatusCode 0001a0c0 f   DxeReportStatusCodeLib:ReportStatusCodeLib.obj
 0001:00009120       _InternalReportStatusCode  0001a120 f   DxeReportStatusCodeLib:ReportStatusCodeLib.obj
 0001:000091b0       _ReportStatusCodeEx        0001a1b0 f   DxeReportStatusCodeLib:ReportStatusCodeLib.obj
 0001:00009370       _ReportProgressCodeEnabled 0001a370 f   DxeReportStatusCodeLib:ReportStatusCodeLib.obj
 0001:000093a0       _ReportErrorCodeEnabled    0001a3a0 f   DxeReportStatusCodeLib:ReportStatusCodeLib.obj
 0001:000093d0       _ReportDebugCodeEnabled    0001a3d0 f   DxeReportStatusCodeLib:ReportStatusCodeLib.obj
 0001:00009400       _CopyMem                   0001a400 f   BaseMemoryLib:CopyMemWrapper.obj
 0001:000094a0       _CopyGuid                  0001a4a0 f   BaseMemoryLib:MemLibGuid.obj
 0001:000094f0       _CompareGuid               0001a4f0 f   BaseMemoryLib:MemLibGuid.obj
 0001:00009580       _ZeroMem                   0001a580 f   BaseMemoryLib:ZeroMemWrapper.obj
 0001:00009600       _InternalMemCopyMem        0001a600 f   BaseMemoryLib:CopyMem.obj
 0001:00009970       _InternalMemSetMem         0001a970 f   BaseMemoryLib:SetMem.obj
 0001:00009a90       _InternalMemZeroMem        0001aa90 f   BaseMemoryLib:MemLibGeneric.obj
 0001:00009ab0       _StrLen                    0001aab0 f   BaseLib:String.obj
 0001:00009b70       _StrSize                   0001ab70 f   BaseLib:String.obj
 0001:00009b90       _StrCmp                    0001ab90 f   BaseLib:String.obj
 0001:00009c40       _StrnCmp                   0001ac40 f   BaseLib:String.obj
 0001:00009d50       _InternalIsDecimalDigitCharacter 0001ad50 f   BaseLib:String.obj
 0001:00009d80       _CharToUpper               0001ad80 f   BaseLib:String.obj
 0001:00009db0       _InternalHexCharToUintn    0001adb0 f   BaseLib:String.obj
 0001:00009df0       _InternalIsHexaDecimalDigitCharacter 0001adf0 f   BaseLib:String.obj
 0001:00009e40       _StrDecimalToUintn         0001ae40 f   BaseLib:String.obj
 0001:00009e70       _StrDecimalToUint64        0001ae70 f   BaseLib:String.obj
 0001:00009ea0       _StrHexToUintn             0001aea0 f   BaseLib:String.obj
 0001:00009ed0       _StrHexToUint64            0001aed0 f   BaseLib:String.obj
 0001:00009f00       _AsciiStrLen               0001af00 f   BaseLib:String.obj
 0001:00009fa0       _AsciiStrSize              0001afa0 f   BaseLib:String.obj
 0001:00009fc0       _InternalSafeStringIsOverlap 0001afc0 f   BaseLib:SafeString.obj
 0001:0000a000       _InternalSafeStringNoStrOverlap 0001b000 f   BaseLib:SafeString.obj
 0001:0000a040       _InternalSafeStringNoAsciiStrOverlap 0001b040 f   BaseLib:SafeString.obj
 0001:0000a080       _StrnLenS                  0001b080 f   BaseLib:SafeString.obj
 0001:0000a100       _StrCpyS                   0001b100 f   BaseLib:SafeString.obj
 0001:0000a440       _StrDecimalToUintnS        0001b440 f   BaseLib:SafeString.obj
 0001:0000a6a0       _StrDecimalToUint64S       0001b6a0 f   BaseLib:SafeString.obj
 0001:0000a960       _StrHexToUintnS            0001b960 f   BaseLib:SafeString.obj
 0001:0000ac30       _StrHexToUint64S           0001bc30 f   BaseLib:SafeString.obj
 0001:0000af60       _StrToIpv6Address          0001bf60 f   BaseLib:SafeString.obj
 0001:0000b320       _StrToIpv4Address          0001c320 f   BaseLib:SafeString.obj
 0001:0000b550       _StrToGuid                 0001c550 f   BaseLib:SafeString.obj
 0001:0000b7e0       _StrHexToBytes             0001c7e0 f   BaseLib:SafeString.obj
 0001:0000bb00       _AsciiStrnLenS             0001cb00 f   BaseLib:SafeString.obj
 0001:0000bb50       _AsciiStrnCpyS             0001cb50 f   BaseLib:SafeString.obj
 0001:0000bee0       _UnicodeStrToAsciiStrS     0001cee0 f   BaseLib:SafeString.obj
 0001:0000c2a0       _CpuBreakpoint             0001d2a0 f   BaseLib:CpuBreakpoint.obj
 0001:0000c2b0       _CpuDeadLoop               0001d2b0 f   BaseLib:CpuDeadLoop.obj
 0001:0000c2d0       _ReadUnaligned16           0001d2d0 f   BaseLib:Unaligned.obj
 0001:0000c310       _WriteUnaligned16          0001d310 f   BaseLib:Unaligned.obj
 0001:0000c350       _ReadUnaligned32           0001d350 f   BaseLib:Unaligned.obj
 0001:0000c390       _ReadUnaligned64           0001d390 f   BaseLib:Unaligned.obj
 0001:0000c3d0       _WriteUnaligned64          0001d3d0 f   BaseLib:Unaligned.obj
 0001:0000c420       _SwapBytes64               0001d420 f   BaseLib:SwapBytes64.obj
 0001:0000c440       _LShiftU64                 0001d440 f   BaseLib:LShiftU64.obj
 0001:0000c490       _DivU64x32Remainder        0001d490 f   BaseLib:DivU64x32Remainder.obj
 0001:0000c4e0       _DivU64x32                 0001d4e0 f   BaseLib:DivU64x32.obj
 0001:0000c530       _SwapBytes16               0001d530 f   BaseLib:SwapBytes16.obj
 0001:0000c550       _SwapBytes32               0001d550 f   BaseLib:SwapBytes32.obj
 0001:0000c590       _MultU64x32                0001d590 f   BaseLib:MultU64x32.obj
 0001:0000c5c0       _RShiftU64                 0001d5c0 f   BaseLib:RShiftU64.obj
 0001:0000c610       _CpuPause                  0001d610 f   BaseLib:CpuPause.obj
 0001:0000c620       _InternalMathSwapBytes64   0001d620 f   BaseLib:SwapBytes64.obj
 0001:0000c630       _InternalMathLShiftU64     0001d630 f   BaseLib:LShiftU64.obj
 0001:0000c650       _InternalMathDivRemU64x32  0001d650 f   BaseLib:DivU64x32Remainder.obj
 0001:0000c670       _InternalMathDivU64x32     0001d670 f   BaseLib:DivU64x32.obj
 0001:0000c690       _InternalMathMultU64x32    0001d690 f   BaseLib:MultU64x32.obj
 0001:0000c6b0       _InternalMathRShiftU64     0001d6b0 f   BaseLib:RShiftU64.obj
 0002:00000000       ??_C@_0CB@DMEJJJHA@?6ASSERT_EFI_ERROR?5?$CIStatus?5?$DN?5?$CFr?$CJ?6@ 0001e000     UefiDriverEntryPoint:DriverEntryPoint.obj
 0002:00000024       ??_C@_0CH@BBNBJKHK@?$CB?$CI?$CI?$CIINTN?$CJ?$CIRETURN_STATUS?$CJ?$CIStatus?$CJ@ 0001e024     UefiDriverEntryPoint:DriverEntryPoint.obj
 0002:00000050       ??_C@_0GP@GHNHPFLI@c?3?2users?2mliang2x?2workspace?2ming@ 0001e050     UefiDriverEntryPoint:DriverEntryPoint.obj
 0002:000000bf       __gDriverUnloadImageCount  0001e0bf     DevicePathDxe:AutoGen.obj
 0002:000000c0       __gPcd_FixedAtBuild_PcdMaximumDevicePathNodeCount 0001e0c0     DevicePathDxe:AutoGen.obj
 0002:000000c0       __gUefiDriverRevision      0001e0c0     DevicePathDxe:AutoGen.obj
 0002:000000c4       ??_C@_0O@LOEPMOAC@DevicePathDxe?$AA@ 0001e0c4     DevicePathDxe:AutoGen.obj
 0002:000000d8       ??_C@_0KD@EJFHIMHJ@c?3?2users?2mliang2x?2workspace?2ming@ 0001e0d8     DevicePathDxe:AutoGen.obj
 0002:0000017b       __gPcd_FixedAtBuild_PcdReportStatusCodePropertyMask 0001e17b     DevicePathDxe:AutoGen.obj
 0002:0000017c       __gPcd_FixedAtBuild_PcdDebugPrintErrorLevel 0001e17c     DevicePathDxe:AutoGen.obj
 0002:00000180       __gPcd_FixedAtBuild_PcdFixedDebugPrintErrorLevel 0001e180     DevicePathDxe:AutoGen.obj
 0002:00000184       __gPcd_FixedAtBuild_PcdMaximumUnicodeStringLength 0001e184     DevicePathDxe:AutoGen.obj
 0002:00000184       __gPcd_FixedAtBuild_PcdMaximumAsciiStringLength 0001e184     DevicePathDxe:AutoGen.obj
 0002:00000188       __gPcd_FixedAtBuild_PcdDebugPropertyMask 0001e188     DevicePathDxe:AutoGen.obj
 0002:00000189       __gPcd_FixedAtBuild_PcdDevicePathSupportDevicePathToText 0001e189     DevicePathDxe:AutoGen.obj
 0002:00000189       __gPcd_FixedAtBuild_PcdDevicePathSupportDevicePathFromText 0001e189     DevicePathDxe:AutoGen.obj
 0002:0000018c       _mDevicePathToText         0001e18c     DevicePathDxe:DevicePath.obj
 0002:00000194       _mDevicePathUtilities      0001e194     DevicePathDxe:DevicePath.obj
 0002:000001b4       _mDevicePathFromText       0001e1b4     DevicePathDxe:DevicePath.obj
 0002:000001bc       ??_C@_0BH@LKMBFCBF@Format?5?$CB?$DN?5?$CI?$CIvoid?5?$CK?$CJ?50?$CJ?$AA@ 0001e1bc     PeiDxeDebugLibReportStatusCode:DebugLib.obj
 0002:000001d8       ??_C@_0HH@BLJPNBBN@c?3?2users?2mliang2x?2workspace?2ming@ 0001e1d8     PeiDxeDebugLibReportStatusCode:DebugLib.obj
 0002:00000250       ??_C@_0CP@EFCGCEBK@?$CICHAR8?5?$CK?$CJBaseListMarkerPointer?5?$DM@ 0001e250     PeiDxeDebugLibReportStatusCode:DebugLib.obj
 0002:00000280       ??_C@_01OHGJGJJP@?$FL?$AA@ 0001e280     PeiDxeDebugLibReportStatusCode:DebugLib.obj
 0002:00000284       ??_C@_02PBFOLPKM@?$FN?5?$AA@ 0001e284     PeiDxeDebugLibReportStatusCode:DebugLib.obj
 0002:00000288       ??_C@_0BH@IACGKAP@Buffer?5?$CB?$DN?5?$CI?$CIvoid?5?$CK?$CJ?50?$CJ?$AA@ 0001e288     PeiDxeDebugLibReportStatusCode:DebugLib.obj
 0002:000002a0       ??_C@_0BF@CBLMFKOC@Node?5?$CB?$DN?5?$CI?$CIvoid?5?$CK?$CJ?50?$CJ?$AA@ 0001e2a0     UefiDevicePathLib:DevicePathUtilities.obj
 0002:000002b8       ??_C@_0GP@HHJAOHCF@c?3?2users?2mliang2x?2workspace?2ming@ 0001e2b8     UefiDevicePathLib:DevicePathUtilities.obj
 0002:00000328       ??_C@_0EH@ENCEEKKL@?$CILength?5?$DO?$DN?5sizeof?5?$CIEFI_DEVICE_PA@ 0001e328     UefiDevicePathLib:DevicePathUtilities.obj
 0002:00000370       ??_C@_0BF@MBJFHGBE@Size?5?$CB?$DN?5?$CI?$CIvoid?5?$CK?$CJ?50?$CJ?$AA@ 0001e370     UefiDevicePathLib:DevicePathUtilities.obj
 0002:00000388       _mUefiDevicePathLibEndDevicePath 0001e388     UefiDevicePathLib:DevicePathUtilities.obj
 0002:0000038c       ??_C@_0BI@MMMKPDJL@AcpiAdr?5?$CB?$DN?5?$CI?$CIvoid?5?$CK?$CJ?50?$CJ?$AA@ 0001e38c     UefiDevicePathLib:DevicePathFromText.obj
 0002:000003a8       ??_C@_0GO@FDHODPLF@c?3?2users?2mliang2x?2workspace?2ming@ 0001e3a8     UefiDevicePathLib:DevicePathFromText.obj
 0002:00000418       ??_C@_1BA@NGCDBIG@?$AAP?$AAr?$AAi?$AAm?$AAa?$AAr?$AAy?$AA?$AA@ 0001e418     UefiDevicePathLib:DevicePathFromText.obj
 0002:00000428       ??_C@_1BE@BGLPHBHD@?$AAS?$AAe?$AAc?$AAo?$AAn?$AAd?$AAa?$AAr?$AAy?$AA?$AA@ 0001e428     UefiDevicePathLib:DevicePathFromText.obj
 0002:0000043c       ??_C@_1O@MHJLHGPK@?$AAM?$AAa?$AAs?$AAt?$AAe?$AAr?$AA?$AA@ 0001e43c     UefiDevicePathLib:DevicePathFromText.obj
 0002:0000044c       ??_C@_1M@MJNGBMFK@?$AAS?$AAl?$AAa?$AAv?$AAe?$AA?$AA@ 0001e44c     UefiDevicePathLib:DevicePathFromText.obj
 0002:00000458       ??_C@_1BA@NAMMFHHL@?$AAX?$AAo?$AAn?$AAX?$AAo?$AAf?$AAf?$AA?$AA@ 0001e458     UefiDevicePathLib:DevicePathFromText.obj
 0002:00000468       ??_C@_1BC@MAICEHGI@?$AAH?$AAa?$AAr?$AAd?$AAw?$AAa?$AAr?$AAe?$AA?$AA@ 0001e468     UefiDevicePathLib:DevicePathFromText.obj
 0002:0000047c       ??_C@_1BG@FMODEGIG@?$AAN?$AAo?$AAT?$AAo?$AAp?$AAo?$AAl?$AAo?$AAg?$AAy?$AA?$AA@ 0001e47c     UefiDevicePathLib:DevicePathFromText.obj
 0002:00000494       ??_C@_19BPNGBNAI@?$AAS?$AAA?$AAT?$AAA?$AA?$AA@ 0001e494     UefiDevicePathLib:DevicePathFromText.obj
 0002:000004a0       ??_C@_17FMMIKNDG@?$AAS?$AAA?$AAS?$AA?$AA@ 0001e4a0     UefiDevicePathLib:DevicePathFromText.obj
 0002:000004a8       ??_C@_1BC@KMFBFJEN@?$AAE?$AAx?$AAt?$AAe?$AAr?$AAn?$AAa?$AAl?$AA?$AA@ 0001e4a8     UefiDevicePathLib:DevicePathFromText.obj
 0002:000004bc       ??_C@_1BC@FBOHHDN@?$AAI?$AAn?$AAt?$AAe?$AAr?$AAn?$AAa?$AAl?$AA?$AA@ 0001e4bc     UefiDevicePathLib:DevicePathFromText.obj
 0002:000004d0       ??_C@_1BC@EEIMPKHO@?$AAE?$AAx?$AAp?$AAa?$AAn?$AAd?$AAe?$AAd?$AA?$AA@ 0001e4d0     UefiDevicePathLib:DevicePathFromText.obj
 0002:000004e4       ??_C@_1O@MDCABJAO@?$AAD?$AAi?$AAr?$AAe?$AAc?$AAt?$AA?$AA@ 0001e4e4     UefiDevicePathLib:DevicePathFromText.obj
 0002:000004f4       ??_C@_17NINPJKOM@?$AAU?$AAD?$AAP?$AA?$AA@ 0001e4f4     UefiDevicePathLib:DevicePathFromText.obj
 0002:000004fc       ??_C@_17JHAKKMK@?$AAT?$AAC?$AAP?$AA?$AA@ 0001e4fc     UefiDevicePathLib:DevicePathFromText.obj
 0002:00000504       ??_C@_1O@ECDFCEKO@?$AAS?$AAt?$AAa?$AAt?$AAi?$AAc?$AA?$AA@ 0001e504     UefiDevicePathLib:DevicePathFromText.obj
 0002:00000514       ??_C@_1CO@IJAKNKHD@?$AAS?$AAt?$AAa?$AAt?$AAe?$AAl?$AAe?$AAs?$AAs?$AAA?$AAu?$AAt?$AAo?$AAC?$AAo?$AAn?$AAf?$AAi?$AAg?$AAu?$AAr?$AAe?$AA?$AA@ 0001e514     UefiDevicePathLib:DevicePathFromText.obj
 0002:00000544       ??_C@_1BA@KDAEEGIF@?$AAD?$AAE?$AAF?$AAA?$AAU?$AAL?$AAT?$AA?$AA@ 0001e544     UefiDevicePathLib:DevicePathFromText.obj
 0002:00000554       ??_C@_13MKMNOPIJ@?$AAD?$AA?$AA@ 0001e554     UefiDevicePathLib:DevicePathFromText.obj
 0002:00000558       ??_C@_13JGCMLPCH@?$AA1?$AA?$AA@ 0001e558     UefiDevicePathLib:DevicePathFromText.obj
 0002:0000055c       ??_C@_17CJOJBPKA@?$AA1?$AA?4?$AA5?$AA?$AA@ 0001e55c     UefiDevicePathLib:DevicePathFromText.obj
 0002:00000564       ??_C@_13IEJJBAMJ@?$AA2?$AA?$AA@ 0001e564     UefiDevicePathLib:DevicePathFromText.obj
 0002:00000568       ??_C@_1O@HNAACJMJ@?$AAC?$AAR?$AAC?$AA3?$AA2?$AAC?$AA?$AA@ 0001e568     UefiDevicePathLib:DevicePathFromText.obj
 0002:00000578       ??_C@_19KLMLHLJG@?$AAN?$AAo?$AAn?$AAe?$AA?$AA@ 0001e578     UefiDevicePathLib:DevicePathFromText.obj
 0002:00000584       ??_C@_1BC@PDNIOEEC@?$AAC?$AAH?$AAA?$AAP?$AA_?$AAU?$AAN?$AAI?$AA?$AA@ 0001e584     UefiDevicePathLib:DevicePathFromText.obj
 0002:00000598       ??_C@_17LNBJLOE@?$AAM?$AAB?$AAR?$AA?$AA@ 0001e598     UefiDevicePathLib:DevicePathFromText.obj
 0002:000005a0       ??_C@_17PBGEHLGA@?$AAG?$AAP?$AAT?$AA?$AA@ 0001e5a0     UefiDevicePathLib:DevicePathFromText.obj
 0002:000005a8       ??_C@_1O@CLMODHEM@?$AAF?$AAl?$AAo?$AAp?$AAp?$AAy?$AA?$AA@ 0001e5a8     UefiDevicePathLib:DevicePathFromText.obj
 0002:000005b8       ??_C@_15LJEABJDH@?$AAH?$AAD?$AA?$AA@ 0001e5b8     UefiDevicePathLib:DevicePathFromText.obj
 0002:000005c0       ??_C@_1M@NEPFDHKI@?$AAC?$AAD?$AAR?$AAO?$AAM?$AA?$AA@ 0001e5c0     UefiDevicePathLib:DevicePathFromText.obj
 0002:000005cc       ??_C@_1O@IJBLAFEH@?$AAP?$AAC?$AAM?$AAC?$AAI?$AAA?$AA?$AA@ 0001e5cc     UefiDevicePathLib:DevicePathFromText.obj
 0002:000005dc       ??_C@_17DMBMDHNL@?$AAU?$AAS?$AAB?$AA?$AA@ 0001e5dc     UefiDevicePathLib:DevicePathFromText.obj
 0002:000005e4       ??_C@_1BA@IFBJBPAK@?$AAN?$AAe?$AAt?$AAw?$AAo?$AAr?$AAk?$AA?$AA@ 0001e5e4     UefiDevicePathLib:DevicePathFromText.obj
 0002:000005f4       ??_C@_19NHABCBNP@?$AAP?$AAa?$AAt?$AAh?$AA?$AA@ 0001e5f4     UefiDevicePathLib:DevicePathFromText.obj
 0002:00000600       ??_C@_1BK@PDLLBLKH@?$AAH?$AAa?$AAr?$AAd?$AAw?$AAa?$AAr?$AAe?$AAP?$AAa?$AAt?$AAh?$AA?$AA@ 0001e600     UefiDevicePathLib:DevicePathFromText.obj
 0002:0000061c       ??_C@_17HLFBGCN@?$AAP?$AAc?$AAi?$AA?$AA@ 0001e61c     UefiDevicePathLib:DevicePathFromText.obj
 0002:00000624       ??_C@_1O@MNOBCDEF@?$AAP?$AAc?$AAC?$AAa?$AAr?$AAd?$AA?$AA@ 0001e624     UefiDevicePathLib:DevicePathFromText.obj
 0002:00000634       ??_C@_1BK@OCLBCLCA@?$AAM?$AAe?$AAm?$AAo?$AAr?$AAy?$AAM?$AAa?$AAp?$AAp?$AAe?$AAd?$AA?$AA@ 0001e634     UefiDevicePathLib:DevicePathFromText.obj
 0002:00000650       ??_C@_1M@LACAKLOF@?$AAV?$AAe?$AAn?$AAH?$AAw?$AA?$AA@ 0001e650     UefiDevicePathLib:DevicePathFromText.obj
 0002:0000065c       ??_C@_19HGPIFADB@?$AAC?$AAt?$AAr?$AAl?$AA?$AA@ 0001e65c     UefiDevicePathLib:DevicePathFromText.obj
 0002:00000668       ??_C@_17MLACALGH@?$AAB?$AAM?$AAC?$AA?$AA@ 0001e668     UefiDevicePathLib:DevicePathFromText.obj
 0002:00000670       ??_C@_1BC@EJFCJMMM@?$AAA?$AAc?$AAp?$AAi?$AAP?$AAa?$AAt?$AAh?$AA?$AA@ 0001e670     UefiDevicePathLib:DevicePathFromText.obj
 0002:00000684       ??_C@_19HOGFOJAH@?$AAA?$AAc?$AAp?$AAi?$AA?$AA@ 0001e684     UefiDevicePathLib:DevicePathFromText.obj
 0002:00000690       ??_C@_1BA@DHIPOOID@?$AAP?$AAc?$AAi?$AAR?$AAo?$AAo?$AAt?$AA?$AA@ 0001e690     UefiDevicePathLib:DevicePathFromText.obj
 0002:000006a0       ??_C@_1BC@CHOMCAOI@?$AAP?$AAc?$AAi?$AAe?$AAR?$AAo?$AAo?$AAt?$AA?$AA@ 0001e6a0     UefiDevicePathLib:DevicePathFromText.obj
 0002:000006b4       ??_C@_1BC@NCPFOOPJ@?$AAK?$AAe?$AAy?$AAb?$AAo?$AAa?$AAr?$AAd?$AA?$AA@ 0001e6b4     UefiDevicePathLib:DevicePathFromText.obj
 0002:000006c8       ??_C@_1O@EKJPAJBH@?$AAS?$AAe?$AAr?$AAi?$AAa?$AAl?$AA?$AA@ 0001e6c8     UefiDevicePathLib:DevicePathFromText.obj
 0002:000006d8       ??_C@_1BK@LKLOGFGG@?$AAP?$AAa?$AAr?$AAa?$AAl?$AAl?$AAe?$AAl?$AAP?$AAo?$AAr?$AAt?$AA?$AA@ 0001e6d8     UefiDevicePathLib:DevicePathFromText.obj
 0002:000006f4       ??_C@_1O@GFMNADOD@?$AAA?$AAc?$AAp?$AAi?$AAE?$AAx?$AA?$AA@ 0001e6f4     UefiDevicePathLib:DevicePathFromText.obj
 0002:00000704       ??_C@_1BA@IHGFDEME@?$AAA?$AAc?$AAp?$AAi?$AAE?$AAx?$AAp?$AA?$AA@ 0001e704     UefiDevicePathLib:DevicePathFromText.obj
 0002:00000714       ??_C@_1BA@NNDCDAFF@?$AAA?$AAc?$AAp?$AAi?$AAA?$AAd?$AAr?$AA?$AA@ 0001e714     UefiDevicePathLib:DevicePathFromText.obj
 0002:00000724       ??_C@_17DACEHHP@?$AAM?$AAs?$AAg?$AA?$AA@ 0001e724     UefiDevicePathLib:DevicePathFromText.obj
 0002:0000072c       ??_C@_17GMMDDNFE@?$AAA?$AAt?$AAa?$AA?$AA@ 0001e72c     UefiDevicePathLib:DevicePathFromText.obj
 0002:00000734       ??_C@_19NLKKMKHM@?$AAS?$AAc?$AAs?$AAi?$AA?$AA@ 0001e734     UefiDevicePathLib:DevicePathFromText.obj
 0002:00000740       ??_C@_1M@KOFKAIAH@?$AAF?$AAi?$AAb?$AAr?$AAe?$AA?$AA@ 0001e740     UefiDevicePathLib:DevicePathFromText.obj
 0002:0000074c       ??_C@_1BA@BDOAEBJM@?$AAF?$AAi?$AAb?$AAr?$AAe?$AAE?$AAx?$AA?$AA@ 0001e74c     UefiDevicePathLib:DevicePathFromText.obj
 0002:0000075c       ??_C@_1M@PJKPDAPK@?$AAI?$AA1?$AA3?$AA9?$AA4?$AA?$AA@ 0001e75c     UefiDevicePathLib:DevicePathFromText.obj
 0002:00000768       ??_C@_17CGMKBHJN@?$AAI?$AA2?$AAO?$AA?$AA@ 0001e768     UefiDevicePathLib:DevicePathFromText.obj
 0002:00000770       ??_C@_1BG@LFNGJFMI@?$AAI?$AAn?$AAf?$AAi?$AAn?$AAi?$AAb?$AAa?$AAn?$AAd?$AA?$AA@ 0001e770     UefiDevicePathLib:DevicePathFromText.obj
 0002:00000788       ??_C@_1O@BHINEOCB@?$AAV?$AAe?$AAn?$AAM?$AAs?$AAg?$AA?$AA@ 0001e788     UefiDevicePathLib:DevicePathFromText.obj
 0002:00000798       ??_C@_1BE@LMIDEMJL@?$AAV?$AAe?$AAn?$AAP?$AAc?$AAA?$AAn?$AAs?$AAi?$AA?$AA@ 0001e798     UefiDevicePathLib:DevicePathFromText.obj
 0002:000007ac       ??_C@_1BC@JHDKFMJG@?$AAV?$AAe?$AAn?$AAV?$AAt?$AA1?$AA0?$AA0?$AA?$AA@ 0001e7ac     UefiDevicePathLib:DevicePathFromText.obj
 0002:000007c0       ??_C@_1BK@NHGIEBMC@?$AAV?$AAe?$AAn?$AAV?$AAt?$AA1?$AA0?$AA0?$AAP?$AAl?$AAu?$AAs?$AA?$AA@ 0001e7c0     UefiDevicePathLib:DevicePathFromText.obj
 0002:000007dc       ??_C@_1BA@NNIEKFBH@?$AAV?$AAe?$AAn?$AAU?$AAt?$AAf?$AA8?$AA?$AA@ 0001e7dc     UefiDevicePathLib:DevicePathFromText.obj
 0002:000007ec       ??_C@_1BK@CEOAKICF@?$AAU?$AAa?$AAr?$AAt?$AAF?$AAl?$AAo?$AAw?$AAC?$AAt?$AAr?$AAl?$AA?$AA@ 0001e7ec     UefiDevicePathLib:DevicePathFromText.obj
 0002:00000808       ??_C@_1M@CCCLFLPN@?$AAS?$AAa?$AAs?$AAE?$AAx?$AA?$AA@ 0001e808     UefiDevicePathLib:DevicePathFromText.obj
 0002:00000814       ??_C@_19LAHBEEFI@?$AAN?$AAV?$AAM?$AAe?$AA?$AA@ 0001e814     UefiDevicePathLib:DevicePathFromText.obj
 0002:00000820       ??_C@_17IHKCJEAJ@?$AAU?$AAF?$AAS?$AA?$AA@ 0001e820     UefiDevicePathLib:DevicePathFromText.obj
 0002:00000828       ??_C@_15NAFBOLGP@?$AAS?$AAD?$AA?$AA@ 0001e828     UefiDevicePathLib:DevicePathFromText.obj
 0002:00000830       ??_C@_19KDEEGBOA@?$AAe?$AAM?$AAM?$AAC?$AA?$AA@ 0001e830     UefiDevicePathLib:DevicePathFromText.obj
 0002:0000083c       ??_C@_1BE@BGIBNJJP@?$AAD?$AAe?$AAb?$AAu?$AAg?$AAP?$AAo?$AAr?$AAt?$AA?$AA@ 0001e83c     UefiDevicePathLib:DevicePathFromText.obj
 0002:00000850       ??_C@_17GFOANJLA@?$AAM?$AAA?$AAC?$AA?$AA@ 0001e850     UefiDevicePathLib:DevicePathFromText.obj
 0002:00000858       ??_C@_19IJMOMJAP@?$AAI?$AAP?$AAv?$AA4?$AA?$AA@ 0001e858     UefiDevicePathLib:DevicePathFromText.obj
 0002:00000864       ??_C@_19CDMHABIE@?$AAI?$AAP?$AAv?$AA6?$AA?$AA@ 0001e864     UefiDevicePathLib:DevicePathFromText.obj
 0002:00000870       ??_C@_19PNLOOBKB@?$AAU?$AAa?$AAr?$AAt?$AA?$AA@ 0001e870     UefiDevicePathLib:DevicePathFromText.obj
 0002:0000087c       ??_C@_1BC@BHHGGAIE@?$AAU?$AAs?$AAb?$AAC?$AAl?$AAa?$AAs?$AAs?$AA?$AA@ 0001e87c     UefiDevicePathLib:DevicePathFromText.obj
 0002:00000890       ??_C@_1BC@NAJEJDIH@?$AAU?$AAs?$AAb?$AAA?$AAu?$AAd?$AAi?$AAo?$AA?$AA@ 0001e890     UefiDevicePathLib:DevicePathFromText.obj
 0002:000008a4       ??_C@_1BM@EBMHFGAN@?$AAU?$AAs?$AAb?$AAC?$AAD?$AAC?$AAC?$AAo?$AAn?$AAt?$AAr?$AAo?$AAl?$AA?$AA@ 0001e8a4     UefiDevicePathLib:DevicePathFromText.obj
 0002:000008c0       ??_C@_1O@MNHDOJBH@?$AAU?$AAs?$AAb?$AAH?$AAI?$AAD?$AA?$AA@ 0001e8c0     UefiDevicePathLib:DevicePathFromText.obj
 0002:000008d0       ??_C@_1BC@PPLGKLBF@?$AAU?$AAs?$AAb?$AAI?$AAm?$AAa?$AAg?$AAe?$AA?$AA@ 0001e8d0     UefiDevicePathLib:DevicePathFromText.obj
 0002:000008e4       ??_C@_1BG@PFAKNBDK@?$AAU?$AAs?$AAb?$AAP?$AAr?$AAi?$AAn?$AAt?$AAe?$AAr?$AA?$AA@ 0001e8e4     UefiDevicePathLib:DevicePathFromText.obj
 0002:000008fc       ??_C@_1BO@PDNPADEO@?$AAU?$AAs?$AAb?$AAM?$AAa?$AAs?$AAs?$AAS?$AAt?$AAo?$AAr?$AAa?$AAg?$AAe?$AA?$AA@ 0001e8fc     UefiDevicePathLib:DevicePathFromText.obj
 0002:0000091c       ??_C@_1O@DLJCNOCD@?$AAU?$AAs?$AAb?$AAH?$AAu?$AAb?$AA?$AA@ 0001e91c     UefiDevicePathLib:DevicePathFromText.obj
 0002:0000092c       ??_C@_1BG@HNPFOCNE@?$AAU?$AAs?$AAb?$AAC?$AAD?$AAC?$AAD?$AAa?$AAt?$AAa?$AA?$AA@ 0001e92c     UefiDevicePathLib:DevicePathFromText.obj
 0002:00000944       ??_C@_1BK@COBNKHKO@?$AAU?$AAs?$AAb?$AAS?$AAm?$AAa?$AAr?$AAt?$AAC?$AAa?$AAr?$AAd?$AA?$AA@ 0001e944     UefiDevicePathLib:DevicePathFromText.obj
 0002:00000960       ??_C@_1BC@OCEEDGOJ@?$AAU?$AAs?$AAb?$AAV?$AAi?$AAd?$AAe?$AAo?$AA?$AA@ 0001e960     UefiDevicePathLib:DevicePathFromText.obj
 0002:00000974       ??_C@_1BM@LPAMJGAO@?$AAU?$AAs?$AAb?$AAD?$AAi?$AAa?$AAg?$AAn?$AAo?$AAs?$AAt?$AAi?$AAc?$AA?$AA@ 0001e974     UefiDevicePathLib:DevicePathFromText.obj
 0002:00000990       ??_C@_1BI@FHBIGIDC@?$AAU?$AAs?$AAb?$AAW?$AAi?$AAr?$AAe?$AAl?$AAe?$AAs?$AAs?$AA?$AA@ 0001e990     UefiDevicePathLib:DevicePathFromText.obj
 0002:000009a8       ??_C@_1DA@MALGIHBH@?$AAU?$AAs?$AAb?$AAD?$AAe?$AAv?$AAi?$AAc?$AAe?$AAF?$AAi?$AAr?$AAm?$AAw?$AAa?$AAr?$AAe?$AAU?$AAp?$AAd?$AAa?$AAt?$AAe?$AA?$AA@ 0001e9a8     UefiDevicePathLib:DevicePathFromText.obj
 0002:000009d8       ??_C@_1BM@OGJGENB@?$AAU?$AAs?$AAb?$AAI?$AAr?$AAd?$AAa?$AAB?$AAr?$AAi?$AAd?$AAg?$AAe?$AA?$AA@ 0001e9d8     UefiDevicePathLib:DevicePathFromText.obj
 0002:000009f4       ??_C@_1CM@FCDMDMMH@?$AAU?$AAs?$AAb?$AAT?$AAe?$AAs?$AAt?$AAA?$AAn?$AAd?$AAM?$AAe?$AAa?$AAs?$AAu?$AAr?$AAe?$AAm?$AAe?$AAn?$AAt?$AA?$AA@ 0001e9f4     UefiDevicePathLib:DevicePathFromText.obj
 0002:00000a20       ??_C@_1BA@JFMBPOKP@?$AAU?$AAs?$AAb?$AAW?$AAw?$AAi?$AAd?$AA?$AA@ 0001ea20     UefiDevicePathLib:DevicePathFromText.obj
 0002:00000a30       ??_C@_19ENIPABFF@?$AAU?$AAn?$AAi?$AAt?$AA?$AA@ 0001ea30     UefiDevicePathLib:DevicePathFromText.obj
 0002:00000a3c       ??_C@_1M@KIOGPKKC@?$AAi?$AAS?$AAC?$AAS?$AAI?$AA?$AA@ 0001ea3c     UefiDevicePathLib:DevicePathFromText.obj
 0002:00000a48       ??_C@_19DHGKIILN@?$AAV?$AAl?$AAa?$AAn?$AA?$AA@ 0001ea48     UefiDevicePathLib:DevicePathFromText.obj
 0002:00000a54       ??_C@_17HMHOINNJ@?$AAD?$AAn?$AAs?$AA?$AA@ 0001ea54     UefiDevicePathLib:DevicePathFromText.obj
 0002:00000a5c       ??_C@_17IHNPMJHH@?$AAU?$AAr?$AAi?$AA?$AA@ 0001ea5c     UefiDevicePathLib:DevicePathFromText.obj
 0002:00000a64       ??_C@_1BE@DJCFELKD@?$AAB?$AAl?$AAu?$AAe?$AAt?$AAo?$AAo?$AAt?$AAh?$AA?$AA@ 0001ea64     UefiDevicePathLib:DevicePathFromText.obj
 0002:00000a78       ??_C@_1M@BMGHIDNG@?$AAW?$AAi?$AA?9?$AAF?$AAi?$AA?$AA@ 0001ea78     UefiDevicePathLib:DevicePathFromText.obj
 0002:00000a84       ??_C@_1BI@EALHOODN@?$AAB?$AAl?$AAu?$AAe?$AAt?$AAo?$AAo?$AAt?$AAh?$AAL?$AAE?$AA?$AA@ 0001ea84     UefiDevicePathLib:DevicePathFromText.obj
 0002:00000a9c       ??_C@_1BE@MHMKEMCG@?$AAM?$AAe?$AAd?$AAi?$AAa?$AAP?$AAa?$AAt?$AAh?$AA?$AA@ 0001ea9c     UefiDevicePathLib:DevicePathFromText.obj
 0002:00000ab0       ??_C@_1BC@GHCKDDOI@?$AAV?$AAe?$AAn?$AAM?$AAe?$AAd?$AAi?$AAa?$AA?$AA@ 0001eab0     UefiDevicePathLib:DevicePathFromText.obj
 0002:00000ac4       ??_C@_1M@OFOICAAP@?$AAM?$AAe?$AAd?$AAi?$AAa?$AA?$AA@ 0001eac4     UefiDevicePathLib:DevicePathFromText.obj
 0002:00000ad0       ??_C@_15NJGIEIGN@?$AAF?$AAv?$AA?$AA@ 0001ead0     UefiDevicePathLib:DevicePathFromText.obj
 0002:00000ad8       ??_C@_1O@HDIGBKAM@?$AAF?$AAv?$AAF?$AAi?$AAl?$AAe?$AA?$AA@ 0001ead8     UefiDevicePathLib:DevicePathFromText.obj
 0002:00000ae8       ??_C@_1O@LMEEEHLB@?$AAO?$AAf?$AAf?$AAs?$AAe?$AAt?$AA?$AA@ 0001eae8     UefiDevicePathLib:DevicePathFromText.obj
 0002:00000af8       ??_C@_1BA@MCPGEJDD@?$AAR?$AAa?$AAm?$AAD?$AAi?$AAs?$AAk?$AA?$AA@ 0001eaf8     UefiDevicePathLib:DevicePathFromText.obj
 0002:00000b08       ??_C@_1BI@DOBDENMH@?$AAV?$AAi?$AAr?$AAt?$AAu?$AAa?$AAl?$AAD?$AAi?$AAs?$AAk?$AA?$AA@ 0001eb08     UefiDevicePathLib:DevicePathFromText.obj
 0002:00000b20       ??_C@_1BE@INMIBDPL@?$AAV?$AAi?$AAr?$AAt?$AAu?$AAa?$AAl?$AAC?$AAD?$AA?$AA@ 0001eb20     UefiDevicePathLib:DevicePathFromText.obj
 0002:00000b34       ??_C@_1CM@HJNDDJNG@?$AAP?$AAe?$AAr?$AAs?$AAi?$AAs?$AAt?$AAe?$AAn?$AAt?$AAV?$AAi?$AAr?$AAt?$AAu?$AAa?$AAl?$AAD?$AAi?$AAs?$AAk?$AA?$AA@ 0001eb34     UefiDevicePathLib:DevicePathFromText.obj
 0002:00000b60       ??_C@_1CI@NFGDEDCN@?$AAP?$AAe?$AAr?$AAs?$AAi?$AAs?$AAt?$AAe?$AAn?$AAt?$AAV?$AAi?$AAr?$AAt?$AAu?$AAa?$AAl?$AAC?$AAD?$AA?$AA@ 0001eb60     UefiDevicePathLib:DevicePathFromText.obj
 0002:00000b88       ??_C@_1BA@EPIJMJOF@?$AAB?$AAb?$AAs?$AAP?$AAa?$AAt?$AAh?$AA?$AA@ 0001eb88     UefiDevicePathLib:DevicePathFromText.obj
 0002:00000b98       ??_C@_17GKENOOCN@?$AAB?$AAB?$AAS?$AA?$AA@ 0001eb98     UefiDevicePathLib:DevicePathFromText.obj
 0002:00000ba0       ??_C@_19EBDONFFG@?$AAS?$AAa?$AAt?$AAa?$AA?$AA@ 0001eba0     UefiDevicePathLib:DevicePathFromText.obj
 0002:00000bac       ??_C@_0BO@BBJIABON@DeviceNodeStr?5?$CB?$DN?5?$CI?$CIvoid?5?$CK?$CJ?50?$CJ?$AA@ 0001ebac     UefiDevicePathLib:DevicePathFromText.obj
 0002:00000bcc       ??_C@_0BL@JFODOCGB@DevicePath?5?$CB?$DN?5?$CI?$CIvoid?5?$CK?$CJ?50?$CJ?$AA@ 0001ebcc     UefiDevicePathLib:DevicePathFromText.obj
 0002:00000be8       ??_C@_0BL@PENJEDLL@DeviceNode?5?$CB?$DN?5?$CI?$CIvoid?5?$CK?$CJ?50?$CJ?$AA@ 0001ebe8     UefiDevicePathLib:DevicePathFromText.obj
 0002:00000c04       ??_C@_0BJ@NNFHKMPH@Str?9?$DOStr?5?$CB?$DN?5?$CI?$CIvoid?5?$CK?$CJ?50?$CJ?$AA@ 0001ec04     UefiDevicePathLib:DevicePathToText.obj
 0002:00000c20       ??_C@_0GM@FMMHFPK@c?3?2users?2mliang2x?2workspace?2ming@ 0001ec20     UefiDevicePathLib:DevicePathToText.obj
 0002:00000c8c       ??_C@_1BO@OAGLMPIF@?$AAP?$AAc?$AAi?$AA?$CI?$AA0?$AAx?$AA?$CF?$AAx?$AA?0?$AA0?$AAx?$AA?$CF?$AAx?$AA?$CJ?$AA?$AA@ 0001ec8c     UefiDevicePathLib:DevicePathToText.obj
 0002:00000cac       ??_C@_1BK@KCEBDNMK@?$AAP?$AAc?$AAC?$AAa?$AAr?$AAd?$AA?$CI?$AA0?$AAx?$AA?$CF?$AAx?$AA?$CJ?$AA?$AA@ 0001ecac     UefiDevicePathLib:DevicePathToText.obj
 0002:00000cc8       ??_C@_1DO@IFCJNKPC@?$AAM?$AAe?$AAm?$AAo?$AAr?$AAy?$AAM?$AAa?$AAp?$AAp?$AAe?$AAd?$AA?$CI?$AA0?$AAx?$AA?$CF?$AAx?$AA?0?$AA0?$AAx?$AA?$CF?$AAl?$AAx?$AA?0?$AA0?$AAx?$AA?$CF?$AAl?$AAx?$AA?$CJ?$AA?$AA@ 0001ecc8     UefiDevicePathLib:DevicePathToText.obj
 0002:00000d08       ??_C@_15FLNOEOHI@?$AAH?$AAw?$AA?$AA@ 0001ed08     UefiDevicePathLib:DevicePathToText.obj
 0002:00000d10       ??_C@_1BI@PHHNEBMB@?$AAV?$AAe?$AAn?$AAP?$AAc?$AAA?$AAn?$AAs?$AAi?$AA?$CI?$AA?$CJ?$AA?$AA@ 0001ed10     UefiDevicePathLib:DevicePathToText.obj
 0002:00000d28       ??_C@_1BG@IAIKNGNN@?$AAV?$AAe?$AAn?$AAV?$AAt?$AA1?$AA0?$AA0?$AA?$CI?$AA?$CJ?$AA?$AA@ 0001ed28     UefiDevicePathLib:DevicePathToText.obj
 0002:00000d40       ??_C@_1BO@COEKAAEN@?$AAV?$AAe?$AAn?$AAV?$AAt?$AA1?$AA0?$AA0?$AAP?$AAl?$AAu?$AAs?$AA?$CI?$AA?$CJ?$AA?$AA@ 0001ed40     UefiDevicePathLib:DevicePathToText.obj
 0002:00000d60       ??_C@_1BE@IDDFGEGE@?$AAV?$AAe?$AAn?$AAU?$AAt?$AAf?$AA8?$AA?$CI?$AA?$CJ?$AA?$AA@ 0001ed60     UefiDevicePathLib:DevicePathToText.obj
 0002:00000d74       ??_C@_1CC@FKEHNDLA@?$AAU?$AAa?$AAr?$AAt?$AAF?$AAl?$AAo?$AAw?$AAC?$AAt?$AAr?$AAl?$AA?$CI?$AA?$CF?$AAs?$AA?$CJ?$AA?$AA@ 0001ed74     UefiDevicePathLib:DevicePathToText.obj
 0002:00000d98       ??_C@_1CM@MBOKCKGI@?$AAS?$AAA?$AAS?$AA?$CI?$AA0?$AAx?$AA?$CF?$AAl?$AAx?$AA?0?$AA0?$AAx?$AA?$CF?$AAl?$AAx?$AA?0?$AA0?$AAx?$AA?$CF?$AAx?$AA?0?$AA?$AA@ 0001ed98     UefiDevicePathLib:DevicePathToText.obj
 0002:00000dc4       ??_C@_1CE@FDCOMKL@?$AAN?$AAo?$AAT?$AAo?$AAp?$AAo?$AAl?$AAo?$AAg?$AAy?$AA?0?$AA0?$AA?0?$AA0?$AA?0?$AA0?$AA?0?$AA?$AA@ 0001edc4     UefiDevicePathLib:DevicePathToText.obj
 0002:00000de8       ??_C@_1BE@MLBJKAMN@?$AA?$CF?$AAs?$AA?0?$AA?$CF?$AAs?$AA?0?$AA?$CF?$AAs?$AA?0?$AA?$AA@ 0001ede8     UefiDevicePathLib:DevicePathToText.obj
 0002:00000dfc       ??_C@_15KAKDEJHH@?$AA0?$AA?0?$AA?$AA@ 0001edfc     UefiDevicePathLib:DevicePathToText.obj
 0002:00000e04       ??_C@_1M@MJJODJOA@?$AA0?$AAx?$AA?$CF?$AAx?$AA?0?$AA?$AA@ 0001ee04     UefiDevicePathLib:DevicePathToText.obj
 0002:00000e10       ??_C@_1BI@EOONELPP@?$AA0?$AAx?$AA?$CF?$AAx?$AA?0?$AA0?$AA?0?$AA0?$AA?0?$AA0?$AA?0?$AA?$AA@ 0001ee10     UefiDevicePathLib:DevicePathToText.obj
 0002:00000e28       ??_C@_1M@POEAMJNC@?$AA0?$AAx?$AA?$CF?$AAx?$AA?$CJ?$AA?$AA@ 0001ee28     UefiDevicePathLib:DevicePathToText.obj
 0002:00000e34       ??_C@_1BI@IHPCIEPJ@?$AAD?$AAe?$AAb?$AAu?$AAg?$AAP?$AAo?$AAr?$AAt?$AA?$CI?$AA?$CJ?$AA?$AA@ 0001ee34     UefiDevicePathLib:DevicePathToText.obj
 0002:00000e4c       ??_C@_13HGPDMIBE@?$AA?$DP?$AA?$AA@ 0001ee4c     UefiDevicePathLib:DevicePathToText.obj
 0002:00000e50       ??_C@_1BC@EAAHJKNI@?$AAV?$AAe?$AAn?$AA?$CF?$AAs?$AA?$CI?$AA?$CF?$AAg?$AA?$AA@ 0001ee50     UefiDevicePathLib:DevicePathToText.obj
 0002:00000e64       ??_C@_13DEFPDAGF@?$AA?0?$AA?$AA@ 0001ee64     UefiDevicePathLib:DevicePathToText.obj
 0002:00000e68       ??_C@_19NHPFCCLF@?$AA?$CF?$AA0?$AA2?$AAx?$AA?$AA@ 0001ee68     UefiDevicePathLib:DevicePathToText.obj
 0002:00000e74       ??_C@_13DIBMAFH@?$AA?$CJ?$AA?$AA@ 0001ee74     UefiDevicePathLib:DevicePathToText.obj
 0002:00000e78       ??_C@_1BG@PDEHEHNB@?$AAC?$AAt?$AAr?$AAl?$AA?$CI?$AA0?$AAx?$AA?$CF?$AAx?$AA?$CJ?$AA?$AA@ 0001ee78     UefiDevicePathLib:DevicePathToText.obj
 0002:00000e90       ??_C@_1CA@OCDNKJMI@?$AAB?$AAM?$AAC?$AA?$CI?$AA0?$AAx?$AA?$CF?$AAx?$AA?0?$AA0?$AAx?$AA?$CF?$AAl?$AAx?$AA?$CJ?$AA?$AA@ 0001ee90     UefiDevicePathLib:DevicePathToText.obj
 0002:00000eb0       ??_C@_1BM@LLBDFMIK@?$AAP?$AAc?$AAi?$AAR?$AAo?$AAo?$AAt?$AA?$CI?$AA0?$AAx?$AA?$CF?$AAx?$AA?$CJ?$AA?$AA@ 0001eeb0     UefiDevicePathLib:DevicePathToText.obj
 0002:00000ecc       ??_C@_1BO@IHBMGOPI@?$AAP?$AAc?$AAi?$AAe?$AAR?$AAo?$AAo?$AAt?$AA?$CI?$AA0?$AAx?$AA?$CF?$AAx?$AA?$CJ?$AA?$AA@ 0001eecc     UefiDevicePathLib:DevicePathToText.obj
 0002:00000eec       ??_C@_1BK@NGLNBACO@?$AAF?$AAl?$AAo?$AAp?$AAp?$AAy?$AA?$CI?$AA0?$AAx?$AA?$CF?$AAx?$AA?$CJ?$AA?$AA@ 0001eeec     UefiDevicePathLib:DevicePathToText.obj
 0002:00000f08       ??_C@_1BO@OEKEOEOK@?$AAK?$AAe?$AAy?$AAb?$AAo?$AAa?$AAr?$AAd?$AA?$CI?$AA0?$AAx?$AA?$CF?$AAx?$AA?$CJ?$AA?$AA@ 0001ef08     UefiDevicePathLib:DevicePathToText.obj
 0002:00000f28       ??_C@_1BK@PMIGPGKH@?$AAS?$AAe?$AAr?$AAi?$AAa?$AAl?$AA?$CI?$AA0?$AAx?$AA?$CF?$AAx?$AA?$CJ?$AA?$AA@ 0001ef28     UefiDevicePathLib:DevicePathToText.obj
 0002:00000f44       ??_C@_1CG@CPMOJELH@?$AAP?$AAa?$AAr?$AAa?$AAl?$AAl?$AAe?$AAl?$AAP?$AAo?$AAr?$AAt?$AA?$CI?$AA0?$AAx?$AA?$CF?$AAx?$AA?$CJ?$AA?$AA@ 0001ef44     UefiDevicePathLib:DevicePathToText.obj
 0002:00000f6c       ??_C@_1CG@JCMCADBM@?$AAA?$AAc?$AAp?$AAi?$AA?$CI?$AAP?$AAN?$AAP?$AA?$CF?$AA0?$AA4?$AAx?$AA?0?$AA0?$AAx?$AA?$CF?$AAx?$AA?$CJ?$AA?$AA@ 0001ef6c     UefiDevicePathLib:DevicePathToText.obj
 0002:00000f94       ??_C@_1CE@CLIAMHCD@?$AAA?$AAc?$AAp?$AAi?$AA?$CI?$AA0?$AAx?$AA?$CF?$AA0?$AA8?$AAx?$AA?0?$AA0?$AAx?$AA?$CF?$AAx?$AA?$CJ?$AA?$AA@ 0001ef94     UefiDevicePathLib:DevicePathToText.obj
 0002:00000fb8       ??_C@_1BI@IBECIOLF@?$AAP?$AAc?$AAi?$AAR?$AAo?$AAo?$AAt?$AA?$CI?$AA?$CF?$AAa?$AA?$CJ?$AA?$AA@ 0001efb8     UefiDevicePathLib:DevicePathToText.obj
 0002:00000fd0       ??_C@_1BK@HOGBDMPI@?$AAP?$AAc?$AAi?$AAe?$AAR?$AAo?$AAo?$AAt?$AA?$CI?$AA?$CF?$AAa?$AA?$CJ?$AA?$AA@ 0001efd0     UefiDevicePathLib:DevicePathToText.obj
 0002:00000fec       ??_C@_1BG@BGLICHDL@?$AA?$CF?$AAc?$AA?$CF?$AAc?$AA?$CF?$AAc?$AA?$CF?$AA0?$AA4?$AAX?$AA?$AA@ 0001efec     UefiDevicePathLib:DevicePathToText.obj
 0002:00001004       ??_C@_1CC@CMCFGMM@?$AAA?$AAc?$AAp?$AAi?$AAE?$AAx?$AAp?$AA?$CI?$AA?$CF?$AAs?$AA?0?$AA0?$AA?0?$AA?$CF?$AAa?$AA?$CJ?$AA?$AA@ 0001f004     UefiDevicePathLib:DevicePathToText.obj
 0002:00001028       ??_C@_1CE@CGEKHGFF@?$AAA?$AAc?$AAp?$AAi?$AAE?$AAx?$AAp?$AA?$CI?$AA?$CF?$AAs?$AA?0?$AA?$CF?$AAs?$AA?0?$AA?$CF?$AAa?$AA?$CJ?$AA?$AA@ 0001f028     UefiDevicePathLib:DevicePathToText.obj
 0002:0000104c       ??_C@_1BG@EEDCOCH@?$AAA?$AAc?$AAp?$AAi?$AAE?$AAx?$AA?$CI?$AA?$CF?$AAa?$AA?0?$AA?$AA@ 0001f04c     UefiDevicePathLib:DevicePathToText.obj
 0002:00001064       ??_C@_1BG@EKFNINLH@?$AAA?$AAc?$AAp?$AAi?$AAE?$AAx?$AA?$CI?$AA?$CF?$AAs?$AA?0?$AA?$AA@ 0001f064     UefiDevicePathLib:DevicePathToText.obj
 0002:0000107c       ??_C@_17CAHIANN@?$AA?$CF?$AAa?$AA?0?$AA?$AA@ 0001f07c     UefiDevicePathLib:DevicePathToText.obj
 0002:00001084       ??_C@_17EMBJCDEN@?$AA?$CF?$AAs?$AA?0?$AA?$AA@ 0001f084     UefiDevicePathLib:DevicePathToText.obj
 0002:0000108c       ??_C@_17DFNJHAOP@?$AA?$CF?$AAa?$AA?$CJ?$AA?$AA@ 0001f08c     UefiDevicePathLib:DevicePathToText.obj
 0002:00001094       ??_C@_1DI@HGKBPPFE@?$AAA?$AAc?$AAp?$AAi?$AAE?$AAx?$AA?$CI?$AA?$CF?$AAs?$AA?0?$AA?$CF?$AAs?$AA?0?$AA0?$AAx?$AA?$CF?$AAx?$AA?0?$AA?$CF?$AAa?$AA?0?$AA?$CF?$AAa?$AA?0?$AA?$CF?$AAa?$AA?$CJ?$AA?$AA@ 0001f094     UefiDevicePathLib:DevicePathToText.obj
 0002:000010cc       ??_C@_1BK@IMGBACLG@?$AAA?$AAc?$AAp?$AAi?$AAA?$AAd?$AAr?$AA?$CI?$AA0?$AAx?$AA?$CF?$AAx?$AA?$AA@ 0001f0cc     UefiDevicePathLib:DevicePathToText.obj
 0002:000010e8       ??_C@_1M@HHLNLLAC@?$AA?0?$AA0?$AAx?$AA?$CF?$AAx?$AA?$AA@ 0001f0e8     UefiDevicePathLib:DevicePathToText.obj
 0002:000010f4       ??_C@_1BE@HBALDGNG@?$AAA?$AAt?$AAa?$AA?$CI?$AA0?$AAx?$AA?$CF?$AAx?$AA?$CJ?$AA?$AA@ 0001f0f4     UefiDevicePathLib:DevicePathToText.obj
 0002:00001108       ??_C@_1CA@EFDNFHKP@?$AAA?$AAt?$AAa?$AA?$CI?$AA?$CF?$AAs?$AA?0?$AA?$CF?$AAs?$AA?0?$AA0?$AAx?$AA?$CF?$AAx?$AA?$CJ?$AA?$AA@ 0001f108     UefiDevicePathLib:DevicePathToText.obj
 0002:00001128       ??_C@_1CA@JGIMMJKB@?$AAS?$AAc?$AAs?$AAi?$AA?$CI?$AA0?$AAx?$AA?$CF?$AAx?$AA?0?$AA0?$AAx?$AA?$CF?$AAx?$AA?$CJ?$AA?$AA@ 0001f128     UefiDevicePathLib:DevicePathToText.obj
 0002:00001148       ??_C@_1CG@OFFLOOAD@?$AAF?$AAi?$AAb?$AAr?$AAe?$AA?$CI?$AA0?$AAx?$AA?$CF?$AAl?$AAx?$AA?0?$AA0?$AAx?$AA?$CF?$AAl?$AAx?$AA?$CJ?$AA?$AA@ 0001f148     UefiDevicePathLib:DevicePathToText.obj
 0002:00001170       ??_C@_1BG@EHEKANON@?$AAF?$AAi?$AAb?$AAr?$AAe?$AAE?$AAx?$AA?$CI?$AA0?$AAx?$AA?$AA@ 0001f170     UefiDevicePathLib:DevicePathToText.obj
 0002:00001188       ??_C@_17JOPFNIFB@?$AA?0?$AA0?$AAx?$AA?$AA@ 0001f188     UefiDevicePathLib:DevicePathToText.obj
 0002:00001190       ??_C@_1BC@CKFHLIJB@?$AAS?$AAa?$AAs?$AAE?$AAx?$AA?$CI?$AA0?$AAx?$AA?$AA@ 0001f190     UefiDevicePathLib:DevicePathToText.obj
 0002:000011a4       ??_C@_1O@IEGBGPLN@?$AA?0?$AA0?$AAx?$AA?$CF?$AAx?$AA?0?$AA?$AA@ 0001f1a4     UefiDevicePathLib:DevicePathToText.obj
 0002:000011b4       ??_C@_1CC@FKOFEPIC@?$AAN?$AAo?$AAT?$AAo?$AAp?$AAo?$AAl?$AAo?$AAg?$AAy?$AA?0?$AA0?$AA?0?$AA0?$AA?0?$AA0?$AA?$AA@ 0001f1b4     UefiDevicePathLib:DevicePathToText.obj
 0002:000011d8       ??_C@_13COJANIEC@?$AA0?$AA?$AA@ 0001f1d8     UefiDevicePathLib:DevicePathToText.obj
 0002:000011dc       ??_C@_19PCNJIDGC@?$AA0?$AAx?$AA?$CF?$AAx?$AA?$AA@ 0001f1dc     UefiDevicePathLib:DevicePathToText.obj
 0002:000011e8       ??_C@_1BG@JCDPLMKI@?$AA0?$AAx?$AA?$CF?$AAx?$AA?0?$AA0?$AA?0?$AA0?$AA?0?$AA0?$AA?$AA@ 0001f1e8     UefiDevicePathLib:DevicePathToText.obj
 0002:00001200       ??_C@_1GG@KPIKGINP@?$AAN?$AAV?$AAM?$AAe?$AA?$CI?$AA0?$AAx?$AA?$CF?$AAx?$AA?0?$AA?$CF?$AA0?$AA2?$AAx?$AA?9?$AA?$CF?$AA0?$AA2?$AAx?$AA?9?$AA?$CF?$AA0?$AA2?$AAx?$AA?9?$AA?$CF?$AA0?$AA2?$AAx?$AA?9?$AA?$CF?$AA0@ 0001f200     UefiDevicePathLib:DevicePathToText.obj
 0002:00001268       ??_C@_1BO@HJLBIHHO@?$AAU?$AAF?$AAS?$AA?$CI?$AA0?$AAx?$AA?$CF?$AAx?$AA?0?$AA0?$AAx?$AA?$CF?$AAx?$AA?$CJ?$AA?$AA@ 0001f268     UefiDevicePathLib:DevicePathToText.obj
 0002:00001288       ??_C@_1BC@JIFEONHJ@?$AAS?$AAD?$AA?$CI?$AA0?$AAx?$AA?$CF?$AAx?$AA?$CJ?$AA?$AA@ 0001f288     UefiDevicePathLib:DevicePathToText.obj
 0002:0000129c       ??_C@_1BG@BHOAMFEP@?$AAe?$AAM?$AAM?$AAC?$AA?$CI?$AA0?$AAx?$AA?$CF?$AAx?$AA?$CJ?$AA?$AA@ 0001f29c     UefiDevicePathLib:DevicePathToText.obj
 0002:000012b4       ??_C@_1BM@OFMOJDLM@?$AAI?$AA1?$AA3?$AA9?$AA4?$AA?$CI?$AA?$CF?$AA0?$AA1?$AA6?$AAl?$AAx?$AA?$CJ?$AA?$AA@ 0001f2b4     UefiDevicePathLib:DevicePathToText.obj
 0002:000012d0       ??_C@_1BO@CIMDKCCI@?$AAU?$AAS?$AAB?$AA?$CI?$AA0?$AAx?$AA?$CF?$AAx?$AA?0?$AA0?$AAx?$AA?$CF?$AAx?$AA?$CJ?$AA?$AA@ 0001f2d0     UefiDevicePathLib:DevicePathToText.obj
 0002:000012f0       ??_C@_0BH@GADOMDOK@NewStr?5?$CB?$DN?5?$CI?$CIvoid?5?$CK?$CJ?50?$CJ?$AA@ 0001f2f0     UefiDevicePathLib:DevicePathToText.obj
 0002:00001308       ??_C@_1DK@IPDOPIPA@?$AAU?$AAs?$AAb?$AAW?$AAw?$AAi?$AAd?$AA?$CI?$AA0?$AAx?$AA?$CF?$AAx?$AA?0?$AA0?$AAx?$AA?$CF?$AAx?$AA?0?$AA0?$AAx?$AA?$CF?$AAx?$AA?0?$AA?$CC?$AA?$CF?$AAs?$AA?$CC?$AA?$CJ?$AA?$AA@ 0001f308     UefiDevicePathLib:DevicePathToText.obj
 0002:00001344       ??_C@_1BG@NJNCNCKM@?$AAU?$AAn?$AAi?$AAt?$AA?$CI?$AA0?$AAx?$AA?$CF?$AAx?$AA?$CJ?$AA?$AA@ 0001f344     UefiDevicePathLib:DevicePathToText.obj
 0002:0000135c       ??_C@_1CM@JDEAFCK@?$AA?$CI?$AA0?$AAx?$AA?$CF?$AAx?$AA?0?$AA0?$AAx?$AA?$CF?$AAx?$AA?0?$AA0?$AAx?$AA?$CF?$AAx?$AA?0?$AA0?$AAx?$AA?$CF?$AAx?$AA?$CJ?$AA?$AA@ 0001f35c     UefiDevicePathLib:DevicePathToText.obj
 0002:00001388       ??_C@_1FA@DIDNHLOK@?$AAU?$AAs?$AAb?$AAD?$AAe?$AAv?$AAi?$AAc?$AAe?$AAF?$AAi?$AAr?$AAm?$AAw?$AAa?$AAr?$AAe?$AAU?$AAp?$AAd?$AAa?$AAt?$AAe?$AA?$CI?$AA0?$AAx?$AA?$CF?$AAx?$AA?0?$AA0?$AAx?$AA?$CF@ 0001f388     UefiDevicePathLib:DevicePathToText.obj
 0002:000013d8       ??_C@_1DM@JLMEALMP@?$AAU?$AAs?$AAb?$AAI?$AAr?$AAd?$AAa?$AAB?$AAr?$AAi?$AAd?$AAg?$AAe?$AA?$CI?$AA0?$AAx?$AA?$CF?$AAx?$AA?0?$AA0?$AAx?$AA?$CF?$AAx?$AA?0?$AA0?$AAx?$AA?$CF?$AAx?$AA?$CJ?$AA?$AA@ 0001f3d8     UefiDevicePathLib:DevicePathToText.obj
 0002:00001418       ??_C@_1EM@PFIODAIB@?$AAU?$AAs?$AAb?$AAT?$AAe?$AAs?$AAt?$AAA?$AAn?$AAd?$AAM?$AAe?$AAa?$AAs?$AAu?$AAr?$AAe?$AAm?$AAe?$AAn?$AAt?$AA?$CI?$AA0?$AAx?$AA?$CF?$AAx?$AA?0?$AA0?$AAx?$AA?$CF?$AAx?$AA?0@ 0001f418     UefiDevicePathLib:DevicePathToText.obj
 0002:00001468       ??_C@_1EG@NMOJJABI@?$AAU?$AAs?$AAb?$AAC?$AAl?$AAa?$AAs?$AAs?$AA?$CI?$AA0?$AAx?$AA?$CF?$AAx?$AA?0?$AA0?$AAx?$AA?$CF?$AAx?$AA?0?$AA0?$AAx?$AA?$CF?$AAx?$AA?0?$AA0?$AAx?$AA?$CF?$AAx?$AA?0?$AA0?$AAx?$AA?$CF@ 0001f468     UefiDevicePathLib:DevicePathToText.obj
 0002:000014b0       ??_C@_1CK@MHLLPHIN@?$AAS?$AAa?$AAt?$AAa?$AA?$CI?$AA0?$AAx?$AA?$CF?$AAx?$AA?0?$AA0?$AAx?$AA?$CF?$AAx?$AA?0?$AA0?$AAx?$AA?$CF?$AAx?$AA?$CJ?$AA?$AA@ 0001f4b0     UefiDevicePathLib:DevicePathToText.obj
 0002:000014dc       ??_C@_1BE@GPJMKBFH@?$AAI?$AA2?$AAO?$AA?$CI?$AA0?$AAx?$AA?$CF?$AAx?$AA?$CJ?$AA?$AA@ 0001f4dc     UefiDevicePathLib:DevicePathToText.obj
 0002:000014f0       ??_C@_19HOEMCGPJ@?$AAM?$AAA?$AAC?$AA?$CI?$AA?$AA@ 0001f4f0     UefiDevicePathLib:DevicePathToText.obj
 0002:000014fc       ??_C@_1O@LDLPJPIP@?$AA?0?$AA0?$AAx?$AA?$CF?$AAx?$AA?$CJ?$AA?$AA@ 0001f4fc     UefiDevicePathLib:DevicePathToText.obj
 0002:0000150c       ??_C@_1BI@FCMLLAGN@?$AA?$CF?$AAd?$AA?4?$AA?$CF?$AAd?$AA?4?$AA?$CF?$AAd?$AA?4?$AA?$CF?$AAd?$AA?$AA@ 0001f50c     UefiDevicePathLib:DevicePathToText.obj
 0002:00001528       ??_C@_1JA@HKGNNMMG@?$AA?$CF?$AA0?$AA2?$AAx?$AA?$CF?$AA0?$AA2?$AAx?$AA?3?$AA?$CF?$AA0?$AA2?$AAx?$AA?$CF?$AA0?$AA2?$AAx?$AA?3?$AA?$CF?$AA0?$AA2?$AAx?$AA?$CF?$AA0?$AA2?$AAx?$AA?3?$AA?$CF?$AA0?$AA2?$AAx?$AA?$CF@ 0001f528     UefiDevicePathLib:DevicePathToText.obj
 0002:000015b8       ??_C@_1M@KGGIME@?$AAI?$AAP?$AAv?$AA4?$AA?$CI?$AA?$AA@ 0001f5b8     UefiDevicePathLib:DevicePathToText.obj
 0002:000015c4       ??_C@_19DDJNJOGL@?$AAD?$AAH?$AAC?$AAP?$AA?$AA@ 0001f5c4     UefiDevicePathLib:DevicePathToText.obj
 0002:000015d0       ??_C@_19JPNAHHAM@?$AA?0?$AA?$CF?$AAs?$AA?0?$AA?$AA@ 0001f5d0     UefiDevicePathLib:DevicePathToText.obj
 0002:000015dc       ??_C@_1M@ENGOMJMP@?$AAI?$AAP?$AAv?$AA6?$AA?$CI?$AA?$AA@ 0001f5dc     UefiDevicePathLib:DevicePathToText.obj
 0002:000015e8       ??_C@_1BC@CMHMGCCH@?$AA?0?$AAS?$AAt?$AAa?$AAt?$AAi?$AAc?$AA?0?$AA?$AA@ 0001f5e8     UefiDevicePathLib:DevicePathToText.obj
 0002:000015fc       ??_C@_1DC@LOFPJEEL@?$AA?0?$AAS?$AAt?$AAa?$AAt?$AAe?$AAl?$AAe?$AAs?$AAs?$AAA?$AAu?$AAt?$AAo?$AAC?$AAo?$AAn?$AAf?$AAi?$AAg?$AAu?$AAr?$AAe?$AA?0?$AA?$AA@ 0001f5fc     UefiDevicePathLib:DevicePathToText.obj
 0002:00001630       ??_C@_1DA@HMGEOIF@?$AA?0?$AAS?$AAt?$AAa?$AAt?$AAe?$AAf?$AAu?$AAl?$AAA?$AAu?$AAt?$AAo?$AAC?$AAo?$AAn?$AAf?$AAi?$AAg?$AAu?$AAr?$AAe?$AA?0?$AA?$AA@ 0001f630     UefiDevicePathLib:DevicePathToText.obj
 0002:00001660       ??_C@_1EM@IPHLFBGI@?$AAI?$AAn?$AAf?$AAi?$AAn?$AAi?$AAb?$AAa?$AAn?$AAd?$AA?$CI?$AA0?$AAx?$AA?$CF?$AAx?$AA?0?$AA?$CF?$AAg?$AA?0?$AA0?$AAx?$AA?$CF?$AAl?$AAx?$AA?0?$AA0?$AAx?$AA?$CF?$AAl?$AAx?$AA?0?$AA0@ 0001f660     UefiDevicePathLib:DevicePathToText.obj
 0002:000016ac       ??_C@_1BM@EHGODEHA@?$AAU?$AAa?$AAr?$AAt?$AA?$CI?$AAD?$AAE?$AAF?$AAA?$AAU?$AAL?$AAT?$AA?0?$AA?$AA@ 0001f6ac     UefiDevicePathLib:DevicePathToText.obj
 0002:000016c8       ??_C@_1BE@OEIOOGGH@?$AAU?$AAa?$AAr?$AAt?$AA?$CI?$AA?$CF?$AAl?$AAd?$AA?0?$AA?$AA@ 0001f6c8     UefiDevicePathLib:DevicePathToText.obj
 0002:000016dc       ??_C@_1BC@DDKPDLCJ@?$AAD?$AAE?$AAF?$AAA?$AAU?$AAL?$AAT?$AA?0?$AA?$AA@ 0001f6dc     UefiDevicePathLib:DevicePathToText.obj
 0002:000016f0       ??_C@_17FCMKBBGO@?$AA?$CF?$AAd?$AA?0?$AA?$AA@ 0001f6f0     UefiDevicePathLib:DevicePathToText.obj
 0002:000016f8       ??_C@_17EPMPCBNG@?$AA?$CF?$AAc?$AA?0?$AA?$AA@ 0001f6f8     UefiDevicePathLib:DevicePathToText.obj
 0002:00001700       ??_C@_15HMOPGJC@?$AAD?$AA?$CJ?$AA?$AA@ 0001f700     UefiDevicePathLib:DevicePathToText.obj
 0002:00001708       ??_C@_15FMCBGKOA@?$AA1?$AA?$CJ?$AA?$AA@ 0001f708     UefiDevicePathLib:DevicePathToText.obj
 0002:00001710       ??_C@_19PODFHIEB@?$AA1?$AA?4?$AA5?$AA?$CJ?$AA?$AA@ 0001f710     UefiDevicePathLib:DevicePathToText.obj
 0002:0000171c       ??_C@_15NKLFBIEO@?$AA2?$AA?$CJ?$AA?$AA@ 0001f71c     UefiDevicePathLib:DevicePathToText.obj
 0002:00001724       ??_C@_15HEHGDBEE@?$AAx?$AA?$CJ?$AA?$AA@ 0001f724     UefiDevicePathLib:DevicePathToText.obj
 0002:0000172c       ??_C@_1CC@OKJDLPLB@?$AAi?$AAS?$AAC?$AAS?$AAI?$AA?$CI?$AA?$CF?$AAa?$AA?0?$AA0?$AAx?$AA?$CF?$AAx?$AA?0?$AA0?$AAx?$AA?$AA@ 0001f72c     UefiDevicePathLib:DevicePathToText.obj
 0002:00001750       ??_C@_1BA@FMEKDPAI@?$AAC?$AAH?$AAA?$AAP?$AA_?$AAB?$AAI?$AA?$AA@ 0001f750     UefiDevicePathLib:DevicePathToText.obj
 0002:00001760       ??_C@_1BC@EFEBCBGB@?$AAr?$AAe?$AAs?$AAe?$AAr?$AAv?$AAe?$AAd?$AA?$AA@ 0001f760     UefiDevicePathLib:DevicePathToText.obj
 0002:00001774       ??_C@_17HLMHNDHP@?$AA?$CF?$AAs?$AA?$CJ?$AA?$AA@ 0001f774     UefiDevicePathLib:DevicePathToText.obj
 0002:0000177c       ??_C@_1BC@OPCHKNKH@?$AAV?$AAl?$AAa?$AAn?$AA?$CI?$AA?$CF?$AAd?$AA?$CJ?$AA?$AA@ 0001f77c     UefiDevicePathLib:DevicePathToText.obj
 0002:00001790       ??_C@_1EI@EPMFLBAJ@?$AAB?$AAl?$AAu?$AAe?$AAt?$AAo?$AAo?$AAt?$AAh?$AA?$CI?$AA?$CF?$AA0?$AA2?$AAx?$AA?$CF?$AA0?$AA2?$AAx?$AA?$CF?$AA0?$AA2?$AAx?$AA?$CF?$AA0?$AA2?$AAx?$AA?$CF?$AA0?$AA2?$AAx?$AA?$CF?$AA0@ 0001f790     UefiDevicePathLib:DevicePathToText.obj
 0002:000017d8       ??_C@_1BE@DKODNJMI@?$AAW?$AAi?$AA?9?$AAF?$AAi?$AA?$CI?$AA?$CF?$AAa?$AA?$CJ?$AA?$AA@ 0001f7d8     UefiDevicePathLib:DevicePathToText.obj
 0002:000017f0       ??_C@_1FK@LABBEHKJ@?$AAB?$AAl?$AAu?$AAe?$AAt?$AAo?$AAo?$AAt?$AAh?$AAL?$AAE?$AA?$CI?$AA?$CF?$AA0?$AA2?$AAx?$AA?$CF?$AA0?$AA2?$AAx?$AA?$CF?$AA0?$AA2?$AAx?$AA?$CF?$AA0?$AA2?$AAx?$AA?$CF?$AA0?$AA2?$AAx@ 0001f7f0     UefiDevicePathLib:DevicePathToText.obj
 0002:0000184c       ??_C@_19KGHFHKGE@?$AAD?$AAn?$AAs?$AA?$CI?$AA?$AA@ 0001f84c     UefiDevicePathLib:DevicePathToText.obj
 0002:00001858       ??_C@_0BH@EDBFFFOA@UriStr?5?$CB?$DN?5?$CI?$CIvoid?5?$CK?$CJ?50?$CJ?$AA@ 0001f858     UefiDevicePathLib:DevicePathToText.obj
 0002:00001870       ??_C@_1BA@OMDAJDPE@?$AAU?$AAr?$AAi?$AA?$CI?$AA?$CF?$AAa?$AA?$CJ?$AA?$AA@ 0001f870     UefiDevicePathLib:DevicePathToText.obj
 0002:00001880       ??_C@_1CC@GGNPKJFE@?$AAH?$AAD?$AA?$CI?$AA?$CF?$AAd?$AA?0?$AA?$CF?$AAs?$AA?0?$AA0?$AAx?$AA?$CF?$AA0?$AA8?$AAx?$AA?0?$AA?$AA@ 0001f880     UefiDevicePathLib:DevicePathToText.obj
 0002:000018a4       ??_C@_1BK@NDBPAJDF@?$AAH?$AAD?$AA?$CI?$AA?$CF?$AAd?$AA?0?$AA?$CF?$AAs?$AA?0?$AA?$CF?$AAg?$AA?0?$AA?$AA@ 0001f8a4     UefiDevicePathLib:DevicePathToText.obj
 0002:000018c0       ??_C@_1BI@BCKDFMFI@?$AAH?$AAD?$AA?$CI?$AA?$CF?$AAd?$AA?0?$AA?$CF?$AAd?$AA?0?$AA0?$AA?0?$AA?$AA@ 0001f8c0     UefiDevicePathLib:DevicePathToText.obj
 0002:000018d8       ??_C@_1BK@MMBDHGIK@?$AA0?$AAx?$AA?$CF?$AAl?$AAx?$AA?0?$AA0?$AAx?$AA?$CF?$AAl?$AAx?$AA?$CJ?$AA?$AA@ 0001f8d8     UefiDevicePathLib:DevicePathToText.obj
 0002:000018f4       ??_C@_1BI@EEHCFNDN@?$AAC?$AAD?$AAR?$AAO?$AAM?$AA?$CI?$AA0?$AAx?$AA?$CF?$AAx?$AA?$CJ?$AA?$AA@ 0001f8f4     UefiDevicePathLib:DevicePathToText.obj
 0002:0000190c       ??_C@_1DA@JMLBJEDN@?$AAC?$AAD?$AAR?$AAO?$AAM?$AA?$CI?$AA0?$AAx?$AA?$CF?$AAx?$AA?0?$AA0?$AAx?$AA?$CF?$AAl?$AAx?$AA?0?$AA0?$AAx?$AA?$CF?$AAl?$AAx?$AA?$CJ?$AA?$AA@ 0001f90c     UefiDevicePathLib:DevicePathToText.obj
 0002:0000193c       ??_C@_15GANGMFKL@?$AA?$CF?$AAs?$AA?$AA@ 0001f93c     UefiDevicePathLib:DevicePathToText.obj
 0002:00001944       ??_C@_1BE@CJGJAKDA@?$AAM?$AAe?$AAd?$AAi?$AAa?$AA?$CI?$AA?$CF?$AAg?$AA?$CJ?$AA?$AA@ 0001f944     UefiDevicePathLib:DevicePathToText.obj
 0002:00001958       ??_C@_1O@HJJPOOCL@?$AAF?$AAv?$AA?$CI?$AA?$CF?$AAg?$AA?$CJ?$AA?$AA@ 0001f958     UefiDevicePathLib:DevicePathToText.obj
 0002:00001968       ??_C@_1BG@MHENELFF@?$AAF?$AAv?$AAF?$AAi?$AAl?$AAe?$AA?$CI?$AA?$CF?$AAg?$AA?$CJ?$AA?$AA@ 0001f968     UefiDevicePathLib:DevicePathToText.obj
 0002:00001980       ??_C@_1CI@FAOKAOM@?$AAO?$AAf?$AAf?$AAs?$AAe?$AAt?$AA?$CI?$AA0?$AAx?$AA?$CF?$AAl?$AAx?$AA?0?$AA0?$AAx?$AA?$CF?$AAl?$AAx?$AA?$CJ?$AA?$AA@ 0001f980     UefiDevicePathLib:DevicePathToText.obj
 0002:000019a8       ??_C@_1DI@GJAGNPCG@?$AAV?$AAi?$AAr?$AAt?$AAu?$AAa?$AAl?$AAD?$AAi?$AAs?$AAk?$AA?$CI?$AA0?$AAx?$AA?$CF?$AAl?$AAx?$AA?0?$AA0?$AAx?$AA?$CF?$AAl?$AAx?$AA?0?$AA?$CF?$AAd?$AA?$CJ?$AA?$AA@ 0001f9a8     UefiDevicePathLib:DevicePathToText.obj
 0002:000019e0       ??_C@_1DE@FBEBFJJD@?$AAV?$AAi?$AAr?$AAt?$AAu?$AAa?$AAl?$AAC?$AAD?$AA?$CI?$AA0?$AAx?$AA?$CF?$AAl?$AAx?$AA?0?$AA0?$AAx?$AA?$CF?$AAl?$AAx?$AA?0?$AA?$CF?$AAd?$AA?$CJ?$AA?$AA@ 0001f9e0     UefiDevicePathLib:DevicePathToText.obj
 0002:00001a18       ??_C@_1EM@PFGFJDCD@?$AAP?$AAe?$AAr?$AAs?$AAi?$AAs?$AAt?$AAe?$AAn?$AAt?$AAV?$AAi?$AAr?$AAt?$AAu?$AAa?$AAl?$AAD?$AAi?$AAs?$AAk?$AA?$CI?$AA0?$AAx?$AA?$CF?$AAl?$AAx?$AA?0?$AA0?$AAx?$AA?$CF?$AAl@ 0001fa18     UefiDevicePathLib:DevicePathToText.obj
 0002:00001a68       ??_C@_1EI@IJLGIAIE@?$AAP?$AAe?$AAr?$AAs?$AAi?$AAs?$AAt?$AAe?$AAn?$AAt?$AAV?$AAi?$AAr?$AAt?$AAu?$AAa?$AAl?$AAC?$AAD?$AA?$CI?$AA0?$AAx?$AA?$CF?$AAl?$AAx?$AA?0?$AA0?$AAx?$AA?$CF?$AAl?$AAx?$AA?0@ 0001fa68     UefiDevicePathLib:DevicePathToText.obj
 0002:00001ab0       ??_C@_1DG@IFGHOPEL@?$AAR?$AAa?$AAm?$AAD?$AAi?$AAs?$AAk?$AA?$CI?$AA0?$AAx?$AA?$CF?$AAl?$AAx?$AA?0?$AA0?$AAx?$AA?$CF?$AAl?$AAx?$AA?0?$AA?$CF?$AAd?$AA?0?$AA?$CF?$AAg?$AA?$CJ?$AA?$AA@ 0001fab0     UefiDevicePathLib:DevicePathToText.obj
 0002:00001ae8       ??_C@_1BE@EICHFCPK@?$AAB?$AAB?$AAS?$AA?$CI?$AA?$CF?$AAs?$AA?0?$AA?$CF?$AAa?$AA?$AA@ 0001fae8     UefiDevicePathLib:DevicePathToText.obj
 0002:00001afc       ??_C@_1BI@EAEHELAJ@?$AAB?$AAB?$AAS?$AA?$CI?$AA0?$AAx?$AA?$CF?$AAx?$AA?0?$AA?$CF?$AAa?$AA?$AA@ 0001fafc     UefiDevicePathLib:DevicePathToText.obj
 0002:00001b14       ??_C@_1BG@BNMBFAIA@?$AAP?$AAa?$AAt?$AAh?$AA?$CI?$AA?$CF?$AAd?$AA?0?$AA?$CF?$AAd?$AA?$AA@ 0001fb14     UefiDevicePathLib:DevicePathToText.obj
 0002:00001b2c       ??_C@_1M@NAHACGNB@?$AA?$CF?$AAs?$AA?$CI?$AA?$CF?$AAd?$AA?$AA@ 0001fb2c     UefiDevicePathLib:DevicePathToText.obj
 0002:00001b38       ??_C@_0BI@JHENLKMB@Str?4Str?5?$CB?$DN?5?$CI?$CIvoid?5?$CK?$CJ?50?$CJ?$AA@ 0001fb38     UefiDevicePathLib:DevicePathToText.obj
 0002:00001b50       ??_C@_13CGOKJPIL@?$AA?1?$AA?$AA@ 0001fb50     UefiDevicePathLib:DevicePathToText.obj
 0002:00001b54       _mUefiDevicePathLibToTextTableGeneric 0001fb54     UefiDevicePathLib:DevicePathToText.obj
 0002:00001b88       _mUefiDevicePathLibToTextTable 0001fb88     UefiDevicePathLib:DevicePathToText.obj
 0002:00001d18       ??_C@_0BN@COECPDCC@gImageHandle?5?$CB?$DN?5?$CI?$CIvoid?5?$CK?$CJ?50?$CJ?$AA@ 0001fd18     UefiBootServicesTableLib:UefiBootServicesTableLib.obj
 0002:00001d38       ??_C@_0HL@PJCLKHFF@c?3?2users?2mliang2x?2workspace?2ming@ 0001fd38     UefiBootServicesTableLib:UefiBootServicesTableLib.obj
 0002:00001db4       ??_C@_0BE@DGNHAHIL@gST?5?$CB?$DN?5?$CI?$CIvoid?5?$CK?$CJ?50?$CJ?$AA@ 0001fdb4     UefiBootServicesTableLib:UefiBootServicesTableLib.obj
 0002:00001dc8       ??_C@_0BE@BDFJLGLN@gBS?5?$CB?$DN?5?$CI?$CIvoid?5?$CK?$CJ?50?$CJ?$AA@ 0001fdc8     UefiBootServicesTableLib:UefiBootServicesTableLib.obj
 0002:00001ddc       ??_C@_0CI@BGLNHBLM@?$CI?$CI?$CIUINTN?$CJ?5?$CIStartOfBuffer?$CJ?$CJ?5?$CG?50x0@ 0001fddc     BasePrintLib:PrintLib.obj
 0002:00001e08       ??_C@_0FP@HCMIGMKH@c?3?2users?2mliang2x?2workspace?2ming@ 0001fe08     BasePrintLib:PrintLib.obj
 0002:00001e68       ??_C@_0CH@KJLBGOBB@?$CI?$CI?$CIUINTN?$CJ?5?$CIFormatString?$CJ?$CJ?5?$CG?50x01@ 0001fe68     BasePrintLib:PrintLib.obj
 0002:00001e90       ??_C@_0GH@MLMKDJJP@c?3?2users?2mliang2x?2workspace?2ming@ 0001fe90     BasePrintLib:PrintLibInternal.obj
 0002:00001ef8       ??_C@_0BJ@CNKJJNE@?$CIBuffer?5?$CB?$DN?5?$CI?$CIvoid?5?$CK?$CJ?50?$CJ?$CJ?$AA@ 0001fef8     BasePrintLib:PrintLibInternal.obj
 0002:00001f18       ??_C@_0EB@HDGIDCIO@?$CIBufferSize?5?$DM?$DN?5?$CI_gPcd_FixedAtBui@ 0001ff18     BasePrintLib:PrintLibInternal.obj
 0002:00001f5c       ??_C@_0BJ@PPAKKDJG@?$CIFormat?5?$CB?$DN?5?$CI?$CIvoid?5?$CK?$CJ?50?$CJ?$CJ?$AA@ 0001ff5c     BasePrintLib:PrintLibInternal.obj
 0002:00001f78       ??_C@_0ED@LPDDCECB@?$CIBufferSize?5?$DM?$DN?5?$CI_gPcd_FixedAtBui@ 0001ff78     BasePrintLib:PrintLibInternal.obj
 0002:00001fc0       ??_C@_0IM@BFJJFLGB@?$CIStrnLenS?5?$CI?$CICHAR16?5?$CK?$CJFormat?0?5?$CI_g@ 0001ffc0     BasePrintLib:PrintLibInternal.obj
 0002:00002050       ??_C@_0ID@PLGJGION@?$CIAsciiStrnLenS?5?$CIFormat?0?5?$CI_gPcd_F@ 00020050     BasePrintLib:PrintLibInternal.obj
 0002:000020d4       ??_C@_0O@MLOLIMFM@?$DMnull?5string?$DO?$AA@ 000200d4     BasePrintLib:PrintLibInternal.obj
 0002:000020e4       ??_C@_0M@BJJDNPHK@?$DMnull?5guid?$DO?$AA@ 000200e4     BasePrintLib:PrintLibInternal.obj
 0002:000020f0       ??_C@_0DB@PMLHLBMO@?$CF08x?9?$CF04x?9?$CF04x?9?$CF02x?$CF02x?9?$CF02x?$CF02x@ 000200f0     BasePrintLib:PrintLibInternal.obj
 0002:00002124       ??_C@_0M@LHGBCIKM@?$DMnull?5time?$DO?$AA@ 00020124     BasePrintLib:PrintLibInternal.obj
 0002:00002130       ??_C@_0BK@FCPKCIDD@?$CF02d?1?$CF02d?1?$CF04d?5?5?$CF02d?3?$CF02d?$AA@ 00020130     BasePrintLib:PrintLibInternal.obj
 0002:0000214c       ??_C@_04JIMNDDED@?$CF08X?$AA@ 0002014c     BasePrintLib:PrintLibInternal.obj
 0002:00002154       ??_C@_02PCIJFNDE@?$AN?6?$AA@ 00020154     BasePrintLib:PrintLibInternal.obj
 0002:00002158       ??_C@_01LIIJDEN@?$AN?$AA@  00020158     BasePrintLib:PrintLibInternal.obj
 0002:00002160       _mWarningString            00020160     BasePrintLib:PrintLibInternal.obj
 0002:00002228       _mErrorString              00020228     BasePrintLib:PrintLibInternal.obj
 0002:00002508       _mHexStr                   00020508     BasePrintLib:PrintLibInternal.obj
 0002:00002518       ??_C@_0HF@CMOOABOD@c?3?2users?2mliang2x?2workspace?2ming@ 00020518     UefiMemoryAllocationLib:MemoryAllocationLib.obj
 0002:00002590       ??_C@_0DD@HIGIPKGN@AllocationSize?5?$DM?$DN?5?$CI0xFFFFFFFF?5?9?5@ 00020590     UefiMemoryAllocationLib:MemoryAllocationLib.obj
 0002:000025c8       ??_C@_0HK@HMGLMJLF@c?3?2users?2mliang2x?2workspace?2ming@ 000205c8     DxeReportStatusCodeLib:ReportStatusCodeLib.obj
 0002:00002644       ??_C@_0DN@HHIHPHHB@?$CB?$CI?$CIExtendedData?5?$DN?$DN?5?$CI?$CIvoid?5?$CK?$CJ?50?$CJ?$CJ@ 00020644     DxeReportStatusCodeLib:ReportStatusCodeLib.obj
 0002:00002684       ??_C@_0DN@BBBIFINB@?$CB?$CI?$CIExtendedData?5?$CB?$DN?5?$CI?$CIvoid?5?$CK?$CJ?50?$CJ?$CJ@ 00020684     DxeReportStatusCodeLib:ReportStatusCodeLib.obj
 0002:000026c4       ??_C@_0DI@PHOMHDKH@?$CILength?5?9?51?$CJ?5?$DM?$DN?5?$CI0xFFFFFFFF?5?9?5?$CIU@ 000206c4     BaseMemoryLib:CopyMemWrapper.obj
 0002:00002700       ??_C@_0GG@HCOKHFCC@c?3?2users?2mliang2x?2workspace?2ming@ 00020700     BaseMemoryLib:CopyMemWrapper.obj
 0002:00002768       ??_C@_0DD@DCDOHCDJ@?$CILength?5?9?51?$CJ?5?$DM?$DN?5?$CI0xFFFFFFFF?5?9?5?$CIU@ 00020768     BaseMemoryLib:CopyMemWrapper.obj
 0002:0000279c       ??_C@_0CL@OBMFBPED@Length?5?$DM?$DN?5?$CI0xFFFFFFFF?5?9?5?$CIUINTN?$CJB@ 0002079c     BaseMemoryLib:MemLibGuid.obj
 0002:000027c8       ??_C@_0GG@MGEIBEOF@c?3?2users?2mliang2x?2workspace?2ming@ 000207c8     BaseMemoryLib:ZeroMemWrapper.obj
 0002:00002830       ??_C@_0BH@MAAHKCPC@String?5?$CB?$DN?5?$CI?$CIvoid?5?$CK?$CJ?50?$CJ?$AA@ 00020830     BaseLib:String.obj
 0002:00002848       ??_C@_0FI@OLEMEIPM@c?3?2users?2mliang2x?2workspace?2ming@ 00020848     BaseLib:String.obj
 0002:000028a0       ??_C@_0CC@GFNLNIOC@?$CI?$CIUINTN?$CJString?5?$CG?50x00000001?$CJ?5?$DN?$DN?5@ 000208a0     BaseLib:String.obj
 0002:000028c4       ??_C@_0DK@EOJCOAME@Length?5?$DM?5_gPcd_FixedAtBuild_PcdM@ 000208c4     BaseLib:String.obj
 0002:00002900       ??_C@_0BL@JAAMOCAJ@StrSize?5?$CIFirstString?$CJ?5?$CB?$DN?50?$AA@ 00020900     BaseLib:String.obj
 0002:0000291c       ??_C@_0BM@DALBOILC@StrSize?5?$CISecondString?$CJ?5?$CB?$DN?50?$AA@ 0002091c     BaseLib:String.obj
 0002:00002938       ??_C@_0DL@LFIMEMJP@Length?5?$DM?$DN?5_gPcd_FixedAtBuild_Pcd@ 00020938     BaseLib:String.obj
 0002:00002974       ??_C@_0DI@MDIKFADO@Length?5?$DM?5_gPcd_FixedAtBuild_PcdM@ 00020974     BaseLib:String.obj
 0002:000029b0       ??_C@_0FM@NNNBGHEF@c?3?2users?2mliang2x?2workspace?2ming@ 000209b0     BaseLib:SafeString.obj
 0002:00002a0c       ??_C@_0CH@LALFPBMC@?$CI?$CIUINTN?$CJDestination?5?$CG?50x00000001@ 00020a0c     BaseLib:SafeString.obj
 0002:00002a34       ??_C@_0CC@HEBCMBPF@?$CI?$CIUINTN?$CJSource?5?$CG?50x00000001?$CJ?5?$DN?$DN?5@ 00020a34     BaseLib:SafeString.obj
 0002:00002a58       ??_C@_0BO@ECNIOIHG@?$CIDestination?5?$CB?$DN?5?$CI?$CIvoid?5?$CK?$CJ?50?$CJ?$CJ?$AA@ 00020a58     BaseLib:SafeString.obj
 0002:00002a78       ??_C@_07KBGDFDAM@StrCpyS?$AA@ 00020a78     BaseLib:SafeString.obj
 0002:00002a80       ??_C@_0EA@PDPDJJNN@?$CFa?$CI?$CFd?$CJ?5?$CFa?3?5SAFE_STRING_CONSTRAIN@ 00020a80     BaseLib:SafeString.obj
 0002:00002ac0       ??_C@_0BJ@EAEEJIP@?$CISource?5?$CB?$DN?5?$CI?$CIvoid?5?$CK?$CJ?50?$CJ?$CJ?$AA@ 00020ac0     BaseLib:SafeString.obj
 0002:00002ae0       ??_C@_0EA@BBALOHPI@?$CIDestMax?5?$DM?$DN?5?$CI_gPcd_FixedAtBuild_@ 00020ae0     BaseLib:SafeString.obj
 0002:00002b20       ??_C@_0P@PMIMLIHM@?$CIDestMax?5?$CB?$DN?50?$CJ?$AA@ 00020b20     BaseLib:SafeString.obj
 0002:00002b30       ??_C@_0BG@EEGIIOKH@?$CIDestMax?5?$DO?5SourceLen?$CJ?$AA@ 00020b30     BaseLib:SafeString.obj
 0002:00002b48       ??_C@_0FH@PPBLBDBJ@InternalSafeStringNoStrOverlap?5?$CI@ 00020b48     BaseLib:SafeString.obj
 0002:00002ba0       ??_C@_0DP@PBOJGJC@?$CILength?5?$DM?$DN?5?$CI_gPcd_FixedAtBuild_P@ 00020ba0     BaseLib:SafeString.obj
 0002:00002be0       ??_C@_0BJ@MBBOBCLN@?$CIString?5?$CB?$DN?5?$CI?$CIvoid?5?$CK?$CJ?50?$CJ?$CJ?$AA@ 00020be0     BaseLib:SafeString.obj
 0002:00002bfc       ??_C@_0BD@NNBAKNOF@StrDecimalToUintnS?$AA@ 00020bfc     BaseLib:SafeString.obj
 0002:00002c10       ??_C@_0BH@JPMEDPAI@?$CIData?5?$CB?$DN?5?$CI?$CIvoid?5?$CK?$CJ?50?$CJ?$CJ?$AA@ 00020c10     BaseLib:SafeString.obj
 0002:00002c28       ??_C@_0IC@CFBPEAPC@?$CIStrnLenS?5?$CIString?0?5?$CI_gPcd_FixedA@ 00020c28     BaseLib:SafeString.obj
 0002:00002cac       ??_C@_0BE@CAKPCCF@StrDecimalToUint64S?$AA@ 00020cac     BaseLib:SafeString.obj
 0002:00002cc0       ??_C@_0P@FDCJFGP@StrHexToUintnS?$AA@ 00020cc0     BaseLib:SafeString.obj
 0002:00002cd0       ??_C@_0BA@PLPLKCD@StrHexToUint64S?$AA@ 00020cd0     BaseLib:SafeString.obj
 0002:00002ce0       ??_C@_0BB@LMEEEKHP@StrToIpv6Address?$AA@ 00020ce0     BaseLib:SafeString.obj
 0002:00002cf4       ??_C@_0BK@PFCDEPEA@?$CIAddress?5?$CB?$DN?5?$CI?$CIvoid?5?$CK?$CJ?50?$CJ?$CJ?$AA@ 00020cf4     BaseLib:SafeString.obj
 0002:00002d10       ??_C@_0EK@OFPBBCEA@AddressIndex?5?$CL?51?5?$DM?5?$CIsizeof?5?$CIAddr@ 00020d10     BaseLib:SafeString.obj
 0002:00002d5c       ??_C@_0BB@JCLCGCPJ@StrToIpv4Address?$AA@ 00020d5c     BaseLib:SafeString.obj
 0002:00002d70       ??_C@_09NDPBFECG@StrToGuid?$AA@ 00020d70     BaseLib:SafeString.obj
 0002:00002d7c       ??_C@_0BH@JHLMKECN@?$CIGuid?5?$CB?$DN?5?$CI?$CIvoid?5?$CK?$CJ?50?$CJ?$CJ?$AA@ 00020d7c     BaseLib:SafeString.obj
 0002:00002d94       ??_C@_0O@GDLPMLII@StrHexToBytes?$AA@ 00020d94     BaseLib:SafeString.obj
 0002:00002da4       ??_C@_0BN@ECMFIFKJ@?$CI?$CILength?5?$CG?50x00000001?$CJ?5?$DN?$DN?50?$CJ?$AA@ 00020da4     BaseLib:SafeString.obj
 0002:00002dc4       ??_C@_0BO@HHMNFJIK@?$CIMaxBufferSize?5?$DO?$DN?5Length?5?1?52?$CJ?$AA@ 00020dc4     BaseLib:SafeString.obj
 0002:00002de4       ??_C@_0DO@LJFOOPII@?$CIDestMax?5?$DM?$DN?5?$CI_gPcd_FixedAtBuild_@ 00020de4     BaseLib:SafeString.obj
 0002:00002e28       ??_C@_0FL@CDANCHFO@InternalSafeStringNoAsciiStrOver@ 00020e28     BaseLib:SafeString.obj
 0002:00002e84       ??_C@_0O@DIHNCLLG@AsciiStrnCpyS?$AA@ 00020e84     BaseLib:SafeString.obj
 0002:00002e94       ??_C@_0DN@DLAADCJE@?$CILength?5?$DM?$DN?5?$CI_gPcd_FixedAtBuild_P@ 00020e94     BaseLib:SafeString.obj
 0002:00002ed4       ??_C@_0BG@ECBHNCII@UnicodeStrToAsciiStrS?$AA@ 00020ed4     BaseLib:SafeString.obj
 0002:00002ef0       ??_C@_0GH@OGMKEJDK@?$CBInternalSafeStringIsOverlap?5?$CIDe@ 00020ef0     BaseLib:SafeString.obj
 0002:00002f58       ??_C@_0BA@MFHLDCJH@?$CKSource?5?$DM?50x100?$AA@ 00020f58     BaseLib:SafeString.obj
 0002:00002f68       ??_C@_0FL@JMOEMBON@c?3?2users?2mliang2x?2workspace?2ming@ 00020f68     BaseLib:Unaligned.obj
 0002:00002fc4       ??_C@_0L@MEMPDLHB@Count?5?$DM?564?$AA@ 00020fc4     BaseLib:LShiftU64.obj
 0002:00002fd0       ??_C@_0FL@NDMKHDG@c?3?2users?2mliang2x?2workspace?2ming@ 00020fd0     BaseLib:LShiftU64.obj
 0002:0000302c       ??_C@_0N@KGHEHMDL@Divisor?5?$CB?$DN?50?$AA@ 0002102c     BaseLib:DivU64x32Remainder.obj
 0002:00003040       ??_C@_0GE@LHLPIAGN@c?3?2users?2mliang2x?2workspace?2ming@ 00021040     BaseLib:DivU64x32Remainder.obj
 0002:000030a8       ??_C@_0FL@HHADAADG@c?3?2users?2mliang2x?2workspace?2ming@ 000210a8     BaseLib:DivU64x32.obj
 0002:00003108       ??_C@_0FL@OIBFJJNE@c?3?2users?2mliang2x?2workspace?2ming@ 00021108     BaseLib:RShiftU64.obj
 0003:00000000       _gEfiLoadedImageProtocolGuid 00022000     DevicePathDxe:AutoGen.obj
 0003:00000010       _gEfiStatusCodeSpecificDataGuid 00022010     DevicePathDxe:AutoGen.obj
 0003:00000020       _gEfiVirtualCdGuid         00022020     DevicePathDxe:AutoGen.obj
 0003:00000030       _gEfiStatusCodeRuntimeProtocolGuid 00022030     DevicePathDxe:AutoGen.obj
 0003:00000040       _gEfiPersistentVirtualDiskGuid 00022040     DevicePathDxe:AutoGen.obj
 0003:00000050       _gEfiVTUTF8Guid            00022050     DevicePathDxe:AutoGen.obj
 0003:00000060       _gEfiUartDevicePathGuid    00022060     DevicePathDxe:AutoGen.obj
 0003:00000070       _gEfiVT100Guid             00022070     DevicePathDxe:AutoGen.obj
 0003:00000080       _gEfiCallerBaseName        00022080     DevicePathDxe:AutoGen.obj
 0003:00000084       _gEfiDevicePathToTextProtocolGuid 00022084     DevicePathDxe:AutoGen.obj
 0003:00000094       _gEfiStatusCodeDataTypeDebugGuid 00022094     DevicePathDxe:AutoGen.obj
 0003:000000a4       _gEfiDevicePathUtilitiesProtocolGuid 000220a4     DevicePathDxe:AutoGen.obj
 0003:000000b4       _gEfiDevicePathFromTextProtocolGuid 000220b4     DevicePathDxe:AutoGen.obj
 0003:000000c4       _gEfiVT100PlusGuid         000220c4     DevicePathDxe:AutoGen.obj
 0003:000000d4       _gEfiDebugPortProtocolGuid 000220d4     DevicePathDxe:AutoGen.obj
 0003:000000e4       _gEfiVirtualDiskGuid       000220e4     DevicePathDxe:AutoGen.obj
 0003:000000f4       _gEfiSasDevicePathGuid     000220f4     DevicePathDxe:AutoGen.obj
 0003:00000104       _gEfiPersistentVirtualCdGuid 00022104     DevicePathDxe:AutoGen.obj
 0003:00000114       _gEfiCallerIdGuid          00022114     DevicePathDxe:AutoGen.obj
 0003:00000124       _gEfiPcAnsiGuid            00022124     DevicePathDxe:AutoGen.obj
 0003:00000138       _mUefiDevicePathLibDevPathFromTextTable 00022138     UefiDevicePathLib:DevicePathFromText.obj
 0003:000003f0       _gST                       000223f0     UefiBootServicesTableLib:UefiBootServicesTableLib.obj
 0003:000003f4       _gBS                       000223f4     UefiBootServicesTableLib:UefiBootServicesTableLib.obj
 0003:000003f8       _gImageHandle              000223f8     UefiBootServicesTableLib:UefiBootServicesTableLib.obj
 0003:000003fc       _mReportStatusCodeLibStatusCodeProtocol 000223fc     DxeReportStatusCodeLib:ReportStatusCodeLib.obj

 entry point at        0001:00000040

 Static symbols

 0000:fffeb000       .debug$S                   00010000     DevicePathDxe.exp
 0001:00003548       $LN25                      00014548     UefiDevicePathLib:DevicePathFromText.obj
 0001:00003564       $LN24                      00014564     UefiDevicePathLib:DevicePathFromText.obj
 0001:00006244       $LN26                      00017244     UefiDevicePathLib:DevicePathToText.obj
 0001:00006278       $LN25                      00017278     UefiDevicePathLib:DevicePathToText.obj
 0001:00006a5c       $LN23                      00017a5c     UefiDevicePathLib:DevicePathToText.obj
 0001:00006a74       $LN24                      00017a74     UefiDevicePathLib:DevicePathToText.obj
 0001:00007538       $LN15                      00018538     UefiDevicePathLib:DevicePathToText.obj
 0001:00008c88       $LN237                     00019c88     BasePrintLib:PrintLibInternal.obj
 0001:00008cb4       $LN233                     00019cb4     BasePrintLib:PrintLibInternal.obj
 0001:00008d24       $LN238                     00019d24     BasePrintLib:PrintLibInternal.obj
 0001:00008d5c       $LN234                     00019d5c     BasePrintLib:PrintLibInternal.obj
 0004:00000000       .edata                     00023000     DevicePathDxe.exp
 0004:00000028       rgpv                       00023028     DevicePathDxe.exp
 0004:0000002c       rgszName                   0002302c     DevicePathDxe.exp
 0004:00000030       rgwOrd                     00023030     DevicePathDxe.exp
 0004:00000032       szName                     00023032     DevicePathDxe.exp
 0004:00000044       $N00001                    00023044     DevicePathDxe.exp
